
./bin/kernel.elf:     file format elf64-x86-64


Disassembly of section .text:

ffffffff80000000 <gdt_load>:
ffffffff80000000:	0f 01 17             	lgdt   (%rdi)
ffffffff80000003:	55                   	push   %rbp
ffffffff80000004:	48 89 e5             	mov    %rsp,%rbp
ffffffff80000007:	6a 10                	pushq  $0x10
ffffffff80000009:	55                   	push   %rbp
ffffffff8000000a:	9c                   	pushfq 
ffffffff8000000b:	6a 08                	pushq  $0x8
ffffffff8000000d:	68 14 00 00 80       	pushq  $0xffffffff80000014
ffffffff80000012:	48 cf                	iretq  

ffffffff80000014 <gdt_load.trampoline>:
ffffffff80000014:	5d                   	pop    %rbp
ffffffff80000015:	66 b8 10 00          	mov    $0x10,%ax
ffffffff80000019:	8e d8                	mov    %eax,%ds
ffffffff8000001b:	8e c0                	mov    %eax,%es
ffffffff8000001d:	8e e0                	mov    %eax,%fs
ffffffff8000001f:	8e e8                	mov    %eax,%gs
ffffffff80000021:	8e d0                	mov    %eax,%ss
ffffffff80000023:	66 b8 50 00          	mov    $0x50,%ax
ffffffff80000027:	0f 00 d8             	ltr    %ax
ffffffff8000002a:	c3                   	retq   

ffffffff8000002b <gdt_load.end>:
ffffffff8000002b:	0f 1f 44 00 00       	nopl   0x0(%rax,%rax,1)

ffffffff80000030 <read_cr2>:
ffffffff80000030:	0f 20 d0             	mov    %cr2,%rax
ffffffff80000033:	c3                   	retq   

ffffffff80000034 <_interrupt_common>:
ffffffff80000034:	fc                   	cld    
ffffffff80000035:	50                   	push   %rax
ffffffff80000036:	53                   	push   %rbx
ffffffff80000037:	51                   	push   %rcx
ffffffff80000038:	52                   	push   %rdx
ffffffff80000039:	56                   	push   %rsi
ffffffff8000003a:	57                   	push   %rdi
ffffffff8000003b:	55                   	push   %rbp
ffffffff8000003c:	41 50                	push   %r8
ffffffff8000003e:	41 51                	push   %r9
ffffffff80000040:	41 52                	push   %r10
ffffffff80000042:	41 53                	push   %r11
ffffffff80000044:	41 54                	push   %r12
ffffffff80000046:	41 55                	push   %r13
ffffffff80000048:	41 56                	push   %r14
ffffffff8000004a:	41 57                	push   %r15
ffffffff8000004c:	48 89 e7             	mov    %rsp,%rdi
ffffffff8000004f:	e8 3c 15 00 00       	callq  ffffffff80001590 <interrupt_handler>
ffffffff80000054:	48 89 c4             	mov    %rax,%rsp
ffffffff80000057:	41 5f                	pop    %r15
ffffffff80000059:	41 5e                	pop    %r14
ffffffff8000005b:	41 5d                	pop    %r13
ffffffff8000005d:	41 5c                	pop    %r12
ffffffff8000005f:	41 5b                	pop    %r11
ffffffff80000061:	41 5a                	pop    %r10
ffffffff80000063:	41 59                	pop    %r9
ffffffff80000065:	41 58                	pop    %r8
ffffffff80000067:	5d                   	pop    %rbp
ffffffff80000068:	5f                   	pop    %rdi
ffffffff80000069:	5e                   	pop    %rsi
ffffffff8000006a:	5a                   	pop    %rdx
ffffffff8000006b:	59                   	pop    %rcx
ffffffff8000006c:	5b                   	pop    %rbx
ffffffff8000006d:	58                   	pop    %rax
ffffffff8000006e:	48 83 c4 10          	add    $0x10,%rsp
ffffffff80000072:	48 cf                	iretq  

ffffffff80000074 <_interrupt0>:
ffffffff80000074:	6a 00                	pushq  $0x0
ffffffff80000076:	6a 00                	pushq  $0x0
ffffffff80000078:	eb ba                	jmp    ffffffff80000034 <_interrupt_common>

ffffffff8000007a <_interrupt1>:
ffffffff8000007a:	6a 00                	pushq  $0x0
ffffffff8000007c:	6a 01                	pushq  $0x1
ffffffff8000007e:	eb b4                	jmp    ffffffff80000034 <_interrupt_common>

ffffffff80000080 <_interrupt2>:
ffffffff80000080:	6a 00                	pushq  $0x0
ffffffff80000082:	6a 02                	pushq  $0x2
ffffffff80000084:	eb ae                	jmp    ffffffff80000034 <_interrupt_common>

ffffffff80000086 <_interrupt3>:
ffffffff80000086:	6a 00                	pushq  $0x0
ffffffff80000088:	6a 03                	pushq  $0x3
ffffffff8000008a:	eb a8                	jmp    ffffffff80000034 <_interrupt_common>

ffffffff8000008c <_interrupt4>:
ffffffff8000008c:	6a 00                	pushq  $0x0
ffffffff8000008e:	6a 04                	pushq  $0x4
ffffffff80000090:	eb a2                	jmp    ffffffff80000034 <_interrupt_common>

ffffffff80000092 <_interrupt5>:
ffffffff80000092:	6a 00                	pushq  $0x0
ffffffff80000094:	6a 05                	pushq  $0x5
ffffffff80000096:	eb 9c                	jmp    ffffffff80000034 <_interrupt_common>

ffffffff80000098 <_interrupt6>:
ffffffff80000098:	6a 00                	pushq  $0x0
ffffffff8000009a:	6a 06                	pushq  $0x6
ffffffff8000009c:	eb 96                	jmp    ffffffff80000034 <_interrupt_common>

ffffffff8000009e <_interrupt7>:
ffffffff8000009e:	6a 00                	pushq  $0x0
ffffffff800000a0:	6a 07                	pushq  $0x7
ffffffff800000a2:	eb 90                	jmp    ffffffff80000034 <_interrupt_common>

ffffffff800000a4 <_interrupt8>:
ffffffff800000a4:	6a 08                	pushq  $0x8
ffffffff800000a6:	eb 8c                	jmp    ffffffff80000034 <_interrupt_common>

ffffffff800000a8 <_interrupt9>:
ffffffff800000a8:	6a 00                	pushq  $0x0
ffffffff800000aa:	6a 09                	pushq  $0x9
ffffffff800000ac:	eb 86                	jmp    ffffffff80000034 <_interrupt_common>

ffffffff800000ae <_interrupt10>:
ffffffff800000ae:	6a 0a                	pushq  $0xa
ffffffff800000b0:	eb 82                	jmp    ffffffff80000034 <_interrupt_common>

ffffffff800000b2 <_interrupt11>:
ffffffff800000b2:	6a 0b                	pushq  $0xb
ffffffff800000b4:	e9 7b ff ff ff       	jmpq   ffffffff80000034 <_interrupt_common>

ffffffff800000b9 <_interrupt12>:
ffffffff800000b9:	6a 0c                	pushq  $0xc
ffffffff800000bb:	e9 74 ff ff ff       	jmpq   ffffffff80000034 <_interrupt_common>

ffffffff800000c0 <_interrupt13>:
ffffffff800000c0:	6a 0d                	pushq  $0xd
ffffffff800000c2:	e9 6d ff ff ff       	jmpq   ffffffff80000034 <_interrupt_common>

ffffffff800000c7 <_interrupt14>:
ffffffff800000c7:	6a 0e                	pushq  $0xe
ffffffff800000c9:	e9 66 ff ff ff       	jmpq   ffffffff80000034 <_interrupt_common>

ffffffff800000ce <_interrupt15>:
ffffffff800000ce:	6a 00                	pushq  $0x0
ffffffff800000d0:	6a 0f                	pushq  $0xf
ffffffff800000d2:	e9 5d ff ff ff       	jmpq   ffffffff80000034 <_interrupt_common>

ffffffff800000d7 <_interrupt16>:
ffffffff800000d7:	6a 00                	pushq  $0x0
ffffffff800000d9:	6a 10                	pushq  $0x10
ffffffff800000db:	e9 54 ff ff ff       	jmpq   ffffffff80000034 <_interrupt_common>

ffffffff800000e0 <_interrupt17>:
ffffffff800000e0:	6a 11                	pushq  $0x11
ffffffff800000e2:	e9 4d ff ff ff       	jmpq   ffffffff80000034 <_interrupt_common>

ffffffff800000e7 <_interrupt18>:
ffffffff800000e7:	6a 00                	pushq  $0x0
ffffffff800000e9:	6a 12                	pushq  $0x12
ffffffff800000eb:	e9 44 ff ff ff       	jmpq   ffffffff80000034 <_interrupt_common>

ffffffff800000f0 <_interrupt19>:
ffffffff800000f0:	6a 00                	pushq  $0x0
ffffffff800000f2:	6a 13                	pushq  $0x13
ffffffff800000f4:	e9 3b ff ff ff       	jmpq   ffffffff80000034 <_interrupt_common>

ffffffff800000f9 <_interrupt20>:
ffffffff800000f9:	6a 00                	pushq  $0x0
ffffffff800000fb:	6a 14                	pushq  $0x14
ffffffff800000fd:	e9 32 ff ff ff       	jmpq   ffffffff80000034 <_interrupt_common>

ffffffff80000102 <_interrupt21>:
ffffffff80000102:	6a 00                	pushq  $0x0
ffffffff80000104:	6a 15                	pushq  $0x15
ffffffff80000106:	e9 29 ff ff ff       	jmpq   ffffffff80000034 <_interrupt_common>

ffffffff8000010b <_interrupt22>:
ffffffff8000010b:	6a 00                	pushq  $0x0
ffffffff8000010d:	6a 16                	pushq  $0x16
ffffffff8000010f:	e9 20 ff ff ff       	jmpq   ffffffff80000034 <_interrupt_common>

ffffffff80000114 <_interrupt23>:
ffffffff80000114:	6a 00                	pushq  $0x0
ffffffff80000116:	6a 17                	pushq  $0x17
ffffffff80000118:	e9 17 ff ff ff       	jmpq   ffffffff80000034 <_interrupt_common>

ffffffff8000011d <_interrupt24>:
ffffffff8000011d:	6a 00                	pushq  $0x0
ffffffff8000011f:	6a 18                	pushq  $0x18
ffffffff80000121:	e9 0e ff ff ff       	jmpq   ffffffff80000034 <_interrupt_common>

ffffffff80000126 <_interrupt25>:
ffffffff80000126:	6a 00                	pushq  $0x0
ffffffff80000128:	6a 19                	pushq  $0x19
ffffffff8000012a:	e9 05 ff ff ff       	jmpq   ffffffff80000034 <_interrupt_common>

ffffffff8000012f <_interrupt26>:
ffffffff8000012f:	6a 00                	pushq  $0x0
ffffffff80000131:	6a 1a                	pushq  $0x1a
ffffffff80000133:	e9 fc fe ff ff       	jmpq   ffffffff80000034 <_interrupt_common>

ffffffff80000138 <_interrupt27>:
ffffffff80000138:	6a 00                	pushq  $0x0
ffffffff8000013a:	6a 1b                	pushq  $0x1b
ffffffff8000013c:	e9 f3 fe ff ff       	jmpq   ffffffff80000034 <_interrupt_common>

ffffffff80000141 <_interrupt28>:
ffffffff80000141:	6a 00                	pushq  $0x0
ffffffff80000143:	6a 1c                	pushq  $0x1c
ffffffff80000145:	e9 ea fe ff ff       	jmpq   ffffffff80000034 <_interrupt_common>

ffffffff8000014a <_interrupt29>:
ffffffff8000014a:	6a 00                	pushq  $0x0
ffffffff8000014c:	6a 1d                	pushq  $0x1d
ffffffff8000014e:	e9 e1 fe ff ff       	jmpq   ffffffff80000034 <_interrupt_common>

ffffffff80000153 <_interrupt30>:
ffffffff80000153:	6a 1e                	pushq  $0x1e
ffffffff80000155:	e9 da fe ff ff       	jmpq   ffffffff80000034 <_interrupt_common>

ffffffff8000015a <_interrupt31>:
ffffffff8000015a:	6a 00                	pushq  $0x0
ffffffff8000015c:	6a 1f                	pushq  $0x1f
ffffffff8000015e:	e9 d1 fe ff ff       	jmpq   ffffffff80000034 <_interrupt_common>

ffffffff80000163 <_interrupt32>:
ffffffff80000163:	6a 00                	pushq  $0x0
ffffffff80000165:	6a 20                	pushq  $0x20
ffffffff80000167:	e9 c8 fe ff ff       	jmpq   ffffffff80000034 <_interrupt_common>

ffffffff8000016c <_interrupt33>:
ffffffff8000016c:	6a 00                	pushq  $0x0
ffffffff8000016e:	6a 21                	pushq  $0x21
ffffffff80000170:	e9 bf fe ff ff       	jmpq   ffffffff80000034 <_interrupt_common>

ffffffff80000175 <_interrupt34>:
ffffffff80000175:	6a 00                	pushq  $0x0
ffffffff80000177:	6a 22                	pushq  $0x22
ffffffff80000179:	e9 b6 fe ff ff       	jmpq   ffffffff80000034 <_interrupt_common>

ffffffff8000017e <_interrupt35>:
ffffffff8000017e:	6a 00                	pushq  $0x0
ffffffff80000180:	6a 23                	pushq  $0x23
ffffffff80000182:	e9 ad fe ff ff       	jmpq   ffffffff80000034 <_interrupt_common>

ffffffff80000187 <_interrupt36>:
ffffffff80000187:	6a 00                	pushq  $0x0
ffffffff80000189:	6a 24                	pushq  $0x24
ffffffff8000018b:	e9 a4 fe ff ff       	jmpq   ffffffff80000034 <_interrupt_common>

ffffffff80000190 <_interrupt37>:
ffffffff80000190:	6a 00                	pushq  $0x0
ffffffff80000192:	6a 25                	pushq  $0x25
ffffffff80000194:	e9 9b fe ff ff       	jmpq   ffffffff80000034 <_interrupt_common>

ffffffff80000199 <_interrupt38>:
ffffffff80000199:	6a 00                	pushq  $0x0
ffffffff8000019b:	6a 26                	pushq  $0x26
ffffffff8000019d:	e9 92 fe ff ff       	jmpq   ffffffff80000034 <_interrupt_common>

ffffffff800001a2 <_interrupt39>:
ffffffff800001a2:	6a 00                	pushq  $0x0
ffffffff800001a4:	6a 27                	pushq  $0x27
ffffffff800001a6:	e9 89 fe ff ff       	jmpq   ffffffff80000034 <_interrupt_common>

ffffffff800001ab <_interrupt40>:
ffffffff800001ab:	6a 00                	pushq  $0x0
ffffffff800001ad:	6a 28                	pushq  $0x28
ffffffff800001af:	e9 80 fe ff ff       	jmpq   ffffffff80000034 <_interrupt_common>

ffffffff800001b4 <_interrupt41>:
ffffffff800001b4:	6a 00                	pushq  $0x0
ffffffff800001b6:	6a 29                	pushq  $0x29
ffffffff800001b8:	e9 77 fe ff ff       	jmpq   ffffffff80000034 <_interrupt_common>

ffffffff800001bd <_interrupt42>:
ffffffff800001bd:	6a 00                	pushq  $0x0
ffffffff800001bf:	6a 2a                	pushq  $0x2a
ffffffff800001c1:	e9 6e fe ff ff       	jmpq   ffffffff80000034 <_interrupt_common>

ffffffff800001c6 <_interrupt43>:
ffffffff800001c6:	6a 00                	pushq  $0x0
ffffffff800001c8:	6a 2b                	pushq  $0x2b
ffffffff800001ca:	e9 65 fe ff ff       	jmpq   ffffffff80000034 <_interrupt_common>

ffffffff800001cf <_interrupt44>:
ffffffff800001cf:	6a 00                	pushq  $0x0
ffffffff800001d1:	6a 2c                	pushq  $0x2c
ffffffff800001d3:	e9 5c fe ff ff       	jmpq   ffffffff80000034 <_interrupt_common>

ffffffff800001d8 <_interrupt45>:
ffffffff800001d8:	6a 00                	pushq  $0x0
ffffffff800001da:	6a 2d                	pushq  $0x2d
ffffffff800001dc:	e9 53 fe ff ff       	jmpq   ffffffff80000034 <_interrupt_common>

ffffffff800001e1 <_interrupt46>:
ffffffff800001e1:	6a 00                	pushq  $0x0
ffffffff800001e3:	6a 2e                	pushq  $0x2e
ffffffff800001e5:	e9 4a fe ff ff       	jmpq   ffffffff80000034 <_interrupt_common>

ffffffff800001ea <_interrupt47>:
ffffffff800001ea:	6a 00                	pushq  $0x0
ffffffff800001ec:	6a 2f                	pushq  $0x2f
ffffffff800001ee:	e9 41 fe ff ff       	jmpq   ffffffff80000034 <_interrupt_common>

ffffffff800001f3 <_interrupt127>:
ffffffff800001f3:	6a 00                	pushq  $0x0
ffffffff800001f5:	6a 7f                	pushq  $0x7f
ffffffff800001f7:	e9 38 fe ff ff       	jmpq   ffffffff80000034 <_interrupt_common>

ffffffff800001fc <_interrupt128>:
ffffffff800001fc:	6a 00                	pushq  $0x0
ffffffff800001fe:	68 80 00 00 00       	pushq  $0x80
ffffffff80000203:	e9 2c fe ff ff       	jmpq   ffffffff80000034 <_interrupt_common>

ffffffff80000208 <isr_stub_table>:
ffffffff80000208:	74 00 00 80 ff ff ff ff 7a 00 00 80 ff ff ff ff     t.......z.......
ffffffff80000218:	80 00 00 80 ff ff ff ff 86 00 00 80 ff ff ff ff     ................
ffffffff80000228:	8c 00 00 80 ff ff ff ff 92 00 00 80 ff ff ff ff     ................
ffffffff80000238:	98 00 00 80 ff ff ff ff 9e 00 00 80 ff ff ff ff     ................
ffffffff80000248:	a4 00 00 80 ff ff ff ff a8 00 00 80 ff ff ff ff     ................
ffffffff80000258:	ae 00 00 80 ff ff ff ff b2 00 00 80 ff ff ff ff     ................
ffffffff80000268:	b9 00 00 80 ff ff ff ff c0 00 00 80 ff ff ff ff     ................
ffffffff80000278:	c7 00 00 80 ff ff ff ff ce 00 00 80 ff ff ff ff     ................
ffffffff80000288:	d7 00 00 80 ff ff ff ff e0 00 00 80 ff ff ff ff     ................
ffffffff80000298:	e7 00 00 80 ff ff ff ff f0 00 00 80 ff ff ff ff     ................
ffffffff800002a8:	f9 00 00 80 ff ff ff ff 02 01 00 80 ff ff ff ff     ................
ffffffff800002b8:	0b 01 00 80 ff ff ff ff 14 01 00 80 ff ff ff ff     ................
ffffffff800002c8:	1d 01 00 80 ff ff ff ff 26 01 00 80 ff ff ff ff     ........&.......
ffffffff800002d8:	2f 01 00 80 ff ff ff ff 38 01 00 80 ff ff ff ff     /.......8.......
ffffffff800002e8:	41 01 00 80 ff ff ff ff 4a 01 00 80 ff ff ff ff     A.......J.......
ffffffff800002f8:	53 01 00 80 ff ff ff ff 5a 01 00 80 ff ff ff ff     S.......Z.......
ffffffff80000308:	63 01 00 80 ff ff ff ff 6c 01 00 80 ff ff ff ff     c.......l.......
ffffffff80000318:	75 01 00 80 ff ff ff ff 7e 01 00 80 ff ff ff ff     u.......~.......
ffffffff80000328:	87 01 00 80 ff ff ff ff 90 01 00 80 ff ff ff ff     ................
ffffffff80000338:	99 01 00 80 ff ff ff ff a2 01 00 80 ff ff ff ff     ................
ffffffff80000348:	ab 01 00 80 ff ff ff ff b4 01 00 80 ff ff ff ff     ................
ffffffff80000358:	bd 01 00 80 ff ff ff ff c6 01 00 80 ff ff ff ff     ................
ffffffff80000368:	cf 01 00 80 ff ff ff ff d8 01 00 80 ff ff ff ff     ................
ffffffff80000378:	e1 01 00 80 ff ff ff ff ea 01 00 80 ff ff ff ff     ................
ffffffff80000388:	f3 01 00 80 ff ff ff ff fc 01 00 80 ff ff ff ff     ................

ffffffff80000398 <idt_load>:
ffffffff80000398:	0f 01 1f             	lidt   (%rdi)
ffffffff8000039b:	fb                   	sti    
ffffffff8000039c:	c3                   	retq   

ffffffff8000039d <int_test>:
ffffffff8000039d:	cd 7f                	int    $0x7f
ffffffff8000039f:	c3                   	retq   

ffffffff800003a0 <vmm_read_cr3>:
ffffffff800003a0:	0f 20 d8             	mov    %cr3,%rax
ffffffff800003a3:	c3                   	retq   

ffffffff800003a4 <vmm_write_cr3>:
ffffffff800003a4:	0f 22 df             	mov    %rdi,%cr3
ffffffff800003a7:	c3                   	retq   

ffffffff800003a8 <vmm_flush_tlb>:
ffffffff800003a8:	0f 01 3f             	invlpg (%rdi)
ffffffff800003ab:	c3                   	retq   

ffffffff800003ac <vmm_read_efer>:
ffffffff800003ac:	b9 80 00 00 c0       	mov    $0xc0000080,%ecx
ffffffff800003b1:	0f 32                	rdmsr  
ffffffff800003b3:	c3                   	retq   

ffffffff800003b4 <vmm_enable_nxe>:
ffffffff800003b4:	b9 80 00 00 c0       	mov    $0xc0000080,%ecx
ffffffff800003b9:	0f 32                	rdmsr  
ffffffff800003bb:	0d 00 08 00 00       	or     $0x800,%eax
ffffffff800003c0:	0f 30                	wrmsr  

ffffffff800003c2 <vmm_enable_nxe.end>:
ffffffff800003c2:	66 2e 0f 1f 84 00 00 	nopw   %cs:0x0(%rax,%rax,1)
ffffffff800003c9:	00 00 00 
ffffffff800003cc:	0f 1f 40 00          	nopl   0x0(%rax)

ffffffff800003d0 <switch_to_task>:
ffffffff800003d0:	50                   	push   %rax
ffffffff800003d1:	53                   	push   %rbx
ffffffff800003d2:	51                   	push   %rcx
ffffffff800003d3:	52                   	push   %rdx
ffffffff800003d4:	56                   	push   %rsi
ffffffff800003d5:	57                   	push   %rdi
ffffffff800003d6:	55                   	push   %rbp
ffffffff800003d7:	41 50                	push   %r8
ffffffff800003d9:	41 51                	push   %r9
ffffffff800003db:	41 52                	push   %r10
ffffffff800003dd:	41 53                	push   %r11
ffffffff800003df:	41 54                	push   %r12
ffffffff800003e1:	41 55                	push   %r13
ffffffff800003e3:	41 56                	push   %r14
ffffffff800003e5:	41 57                	push   %r15

ffffffff800003e7 <switch_to_task.end>:
ffffffff800003e7:	66 0f 1f 84 00 00 00 	nopw   0x0(%rax,%rax,1)
ffffffff800003ee:	00 00 

ffffffff800003f0 <to_usermode>:
ffffffff800003f0:	48 89 f9             	mov    %rdi,%rcx
ffffffff800003f3:	48 89 f4             	mov    %rsi,%rsp
ffffffff800003f6:	41 bb 02 32 00 00    	mov    $0x3202,%r11d
ffffffff800003fc:	48 0f 07             	rex.W sysret 

ffffffff800003ff <read_msr>:
ffffffff800003ff:	48 89 f9             	mov    %rdi,%rcx
ffffffff80000402:	0f 32                	rdmsr  
ffffffff80000404:	c3                   	retq   

ffffffff80000405 <enable_syscall>:
ffffffff80000405:	b9 80 00 00 c0       	mov    $0xc0000080,%ecx
ffffffff8000040a:	0f 32                	rdmsr  
ffffffff8000040c:	83 c8 01             	or     $0x1,%eax
ffffffff8000040f:	0f 30                	wrmsr  
ffffffff80000411:	b9 81 00 00 c0       	mov    $0xc0000081,%ecx
ffffffff80000416:	0f 32                	rdmsr  
ffffffff80000418:	48 89 fa             	mov    %rdi,%rdx
ffffffff8000041b:	0f 30                	wrmsr  
ffffffff8000041d:	b9 82 00 00 c0       	mov    $0xc0000082,%ecx
ffffffff80000422:	0f 32                	rdmsr  
ffffffff80000424:	48 89 f0             	mov    %rsi,%rax
ffffffff80000427:	48 89 f2             	mov    %rsi,%rdx
ffffffff8000042a:	48 c1 e2 20          	shl    $0x20,%rdx
ffffffff8000042e:	0f 30                	wrmsr  
ffffffff80000430:	c3                   	retq   

ffffffff80000431 <enable_sce>:
ffffffff80000431:	b9 80 00 00 c0       	mov    $0xc0000080,%ecx
ffffffff80000436:	0f 32                	rdmsr  
ffffffff80000438:	83 c8 01             	or     $0x1,%eax
ffffffff8000043b:	0f 30                	wrmsr  
ffffffff8000043d:	b9 81 00 00 c0       	mov    $0xc0000081,%ecx
ffffffff80000442:	0f 32                	rdmsr  
ffffffff80000444:	ba 08 00 18 00       	mov    $0x180008,%edx
ffffffff80000449:	0f 30                	wrmsr  
ffffffff8000044b:	c3                   	retq   

ffffffff8000044c <__syscall_handler>:
ffffffff8000044c:	53                   	push   %rbx
ffffffff8000044d:	54                   	push   %rsp
ffffffff8000044e:	55                   	push   %rbp
ffffffff8000044f:	41 54                	push   %r12
ffffffff80000451:	41 55                	push   %r13
ffffffff80000453:	41 56                	push   %r14
ffffffff80000455:	41 57                	push   %r15
ffffffff80000457:	51                   	push   %rcx
ffffffff80000458:	e8 53 2a 00 00       	callq  ffffffff80002eb0 <syscall_handler>
ffffffff8000045d:	59                   	pop    %rcx
ffffffff8000045e:	41 5f                	pop    %r15
ffffffff80000460:	41 5e                	pop    %r14
ffffffff80000462:	41 5d                	pop    %r13
ffffffff80000464:	41 5c                	pop    %r12
ffffffff80000466:	5d                   	pop    %rbp
ffffffff80000467:	5c                   	pop    %rsp
ffffffff80000468:	5b                   	pop    %rbx
ffffffff80000469:	48 0f 07             	rex.W sysret 

ffffffff8000046c <__syscall_handler.end>:
ffffffff8000046c:	0f 1f 40 00          	nopl   0x0(%rax)

ffffffff80000470 <_elf_start>:

void _elf_start()
{
    for(;;)
    {
        asm("hlt");
ffffffff80000470:	f4                   	hlt    
    for(;;)
ffffffff80000471:	eb fd                	jmp    ffffffff80000470 <_elf_start>
ffffffff80000473:	66 2e 0f 1f 84 00 00 	nopw   %cs:0x0(%rax,%rax,1)
ffffffff8000047a:	00 00 00 
ffffffff8000047d:	0f 1f 00             	nopl   (%rax)

ffffffff80000480 <_limine_start>:
};

void _limine_start()
{

    boot_info.type = LIMINE;
ffffffff80000480:	c7 05 96 88 00 00 01 	movl   $0x1,0x8896(%rip)        # ffffffff80008d20 <boot_info>
ffffffff80000487:	00 00 00 
ffffffff8000048a:	66 0f 1f 44 00 00    	nopw   0x0(%rax,%rax,1)
    //boot_info.limine_terminal = terminal_request.response->terminals[0];


    for(;;)
    {
        asm("hlt");
ffffffff80000490:	f4                   	hlt    
    for(;;)
ffffffff80000491:	eb fd                	jmp    ffffffff80000490 <_limine_start+0x10>
ffffffff80000493:	66 2e 0f 1f 84 00 00 	nopw   %cs:0x0(%rax,%rax,1)
ffffffff8000049a:	00 00 00 
ffffffff8000049d:	0f 1f 00             	nopl   (%rax)

ffffffff800004a0 <_start>:
    .tags = (uintptr_t)&framebuffer_hdr_tag
};


static void *stivale2_get_tag(struct stivale2_struct *stivale2_struct, uint64_t id) {
    struct stivale2_tag *current_tag = (void *)stivale2_struct->tags;
ffffffff800004a0:	48 8b 97 80 00 00 00 	mov    0x80(%rdi),%rdx
}

//Entry point. We're going to make sure the bootloader did what it's supposed to do, then pass off to the kernel.
void _start(struct stivale2_struct* stivale2_struct)
{
    boot_info.type = STIVALE2;
ffffffff800004a7:	c7 05 6f 88 00 00 00 	movl   $0x0,0x886f(%rip)        # ffffffff80008d20 <boot_info>
ffffffff800004ae:	00 00 00 
        if (current_tag == NULL) {
ffffffff800004b1:	48 85 d2             	test   %rdx,%rdx
ffffffff800004b4:	0f 84 6e 01 00 00    	je     ffffffff80000628 <_start+0x188>
        if (current_tag->identifier == id) {
ffffffff800004ba:	48 b9 74 09 3b 23 c3 	movabs $0xc2b3f4c3233b0974,%rcx
ffffffff800004c1:	f4 b3 c2 
    struct stivale2_tag *current_tag = (void *)stivale2_struct->tags;
ffffffff800004c4:	48 89 d0             	mov    %rdx,%rax
ffffffff800004c7:	eb 10                	jmp    ffffffff800004d9 <_start+0x39>
ffffffff800004c9:	0f 1f 80 00 00 00 00 	nopl   0x0(%rax)
        current_tag = (void *)current_tag->next;
ffffffff800004d0:	48 8b 40 08          	mov    0x8(%rax),%rax
        if (current_tag == NULL) {
ffffffff800004d4:	48 85 c0             	test   %rax,%rax
ffffffff800004d7:	74 05                	je     ffffffff800004de <_start+0x3e>
        if (current_tag->identifier == id) {
ffffffff800004d9:	48 39 08             	cmp    %rcx,(%rax)
ffffffff800004dc:	75 f2                	jne    ffffffff800004d0 <_start+0x30>
ffffffff800004de:	48 b9 fa 08 04 95 d2 	movabs $0x506461d2950408fa,%rcx
ffffffff800004e5:	61 64 50 
ffffffff800004e8:	48 89 d0             	mov    %rdx,%rax
ffffffff800004eb:	eb 10                	jmp    ffffffff800004fd <_start+0x5d>
ffffffff800004ed:	0f 1f 00             	nopl   (%rax)
        current_tag = (void *)current_tag->next;
ffffffff800004f0:	48 8b 40 08          	mov    0x8(%rax),%rax
        if (current_tag == NULL) {
ffffffff800004f4:	48 85 c0             	test   %rax,%rax
ffffffff800004f7:	0f 84 2b 01 00 00    	je     ffffffff80000628 <_start+0x188>
        if (current_tag->identifier == id) {
ffffffff800004fd:	48 39 08             	cmp    %rcx,(%rax)
ffffffff80000500:	75 ee                	jne    ffffffff800004f0 <_start+0x50>
   
    //Grab the Framebuffer

    

    boot_info.tag_framebuffer = stivale2_get_tag(stivale2_struct, STIVALE2_STRUCT_TAG_FRAMEBUFFER_ID);
ffffffff80000502:	48 89 05 37 88 00 00 	mov    %rax,0x8837(%rip)        # ffffffff80008d40 <boot_info+0x20>
ffffffff80000509:	48 89 d0             	mov    %rdx,%rax
        if (current_tag->identifier == id) {
ffffffff8000050c:	48 b9 07 de 12 86 9e 	movabs $0x2187f79e8612de07,%rcx
ffffffff80000513:	f7 87 21 
ffffffff80000516:	eb 15                	jmp    ffffffff8000052d <_start+0x8d>
ffffffff80000518:	0f 1f 84 00 00 00 00 	nopl   0x0(%rax,%rax,1)
ffffffff8000051f:	00 
        current_tag = (void *)current_tag->next;
ffffffff80000520:	48 8b 40 08          	mov    0x8(%rax),%rax
        if (current_tag == NULL) {
ffffffff80000524:	48 85 c0             	test   %rax,%rax
ffffffff80000527:	0f 84 0e 01 00 00    	je     ffffffff8000063b <_start+0x19b>
        if (current_tag->identifier == id) {
ffffffff8000052d:	48 39 08             	cmp    %rcx,(%rax)
ffffffff80000530:	75 ee                	jne    ffffffff80000520 <_start+0x80>
        for( ;; ) 
            asm("hlt");
    }
 
    //Memory Map
    boot_info.tag_memmap = stivale2_get_tag(stivale2_struct, STIVALE2_STRUCT_TAG_MEMMAP_ID);
ffffffff80000532:	48 89 05 ff 87 00 00 	mov    %rax,0x87ff(%rip)        # ffffffff80008d38 <boot_info+0x18>
ffffffff80000539:	48 89 d0             	mov    %rdx,%rax
        if (current_tag->identifier == id) {
ffffffff8000053c:	48 b9 f0 8a 2a 4a 87 	movabs $0x60d78874a2a8af0,%rcx
ffffffff80000543:	78 0d 06 
ffffffff80000546:	eb 15                	jmp    ffffffff8000055d <_start+0xbd>
ffffffff80000548:	0f 1f 84 00 00 00 00 	nopl   0x0(%rax,%rax,1)
ffffffff8000054f:	00 
        current_tag = (void *)current_tag->next;
ffffffff80000550:	48 8b 40 08          	mov    0x8(%rax),%rax
        if (current_tag == NULL) {
ffffffff80000554:	48 85 c0             	test   %rax,%rax
ffffffff80000557:	0f 84 ee 00 00 00    	je     ffffffff8000064b <_start+0x1ab>
        if (current_tag->identifier == id) {
ffffffff8000055d:	48 39 08             	cmp    %rcx,(%rax)
ffffffff80000560:	75 ee                	jne    ffffffff80000550 <_start+0xb0>
        for( ;; ) 
            asm("hlt");
    }
 
    //Kernel Base Address
    boot_info.tag_kernel_base_address = stivale2_get_tag(stivale2_struct, STIVALE2_STRUCT_TAG_KERNEL_BASE_ADDRESS_ID);
ffffffff80000562:	48 89 05 bf 87 00 00 	mov    %rax,0x87bf(%rip)        # ffffffff80008d28 <boot_info+0x8>
ffffffff80000569:	48 89 d0             	mov    %rdx,%rax
        if (current_tag->identifier == id) {
ffffffff8000056c:	48 b9 78 5e 37 0a 93 	movabs $0x9e1786930a375e78,%rcx
ffffffff80000573:	86 17 9e 
ffffffff80000576:	eb 15                	jmp    ffffffff8000058d <_start+0xed>
ffffffff80000578:	0f 1f 84 00 00 00 00 	nopl   0x0(%rax,%rax,1)
ffffffff8000057f:	00 
        current_tag = (void *)current_tag->next;
ffffffff80000580:	48 8b 40 08          	mov    0x8(%rax),%rax
        if (current_tag == NULL) {
ffffffff80000584:	48 85 c0             	test   %rax,%rax
ffffffff80000587:	0f 84 ce 00 00 00    	je     ffffffff8000065b <_start+0x1bb>
        if (current_tag->identifier == id) {
ffffffff8000058d:	48 39 08             	cmp    %rcx,(%rax)
ffffffff80000590:	75 ee                	jne    ffffffff80000580 <_start+0xe0>
        for( ;; ) 
            asm("hlt");
    }

    //ACPI RSDP
    boot_info.tag_rsdp = stivale2_get_tag(stivale2_struct, STIVALE2_STRUCT_TAG_RSDP_ID);
ffffffff80000592:	48 89 05 b7 87 00 00 	mov    %rax,0x87b7(%rip)        # ffffffff80008d50 <boot_info+0x30>
ffffffff80000599:	48 89 d0             	mov    %rdx,%rax
        if (current_tag->identifier == id) {
ffffffff8000059c:	48 b9 8f b5 8c b1 7d 	movabs $0xb0ed257db18cb58f,%rcx
ffffffff800005a3:	25 ed b0 
ffffffff800005a6:	eb 15                	jmp    ffffffff800005bd <_start+0x11d>
ffffffff800005a8:	0f 1f 84 00 00 00 00 	nopl   0x0(%rax,%rax,1)
ffffffff800005af:	00 
        current_tag = (void *)current_tag->next;
ffffffff800005b0:	48 8b 40 08          	mov    0x8(%rax),%rax
        if (current_tag == NULL) {
ffffffff800005b4:	48 85 c0             	test   %rax,%rax
ffffffff800005b7:	0f 84 ae 00 00 00    	je     ffffffff8000066b <_start+0x1cb>
        if (current_tag->identifier == id) {
ffffffff800005bd:	48 39 08             	cmp    %rcx,(%rax)
ffffffff800005c0:	75 ee                	jne    ffffffff800005b0 <_start+0x110>
        for( ;; )
            asm("hlt");
    }
    
    //Higher Half Direct Map
    boot_info.tag_hhdm = stivale2_get_tag(stivale2_struct, STIVALE2_STRUCT_TAG_HHDM_ID);
ffffffff800005c2:	48 89 05 97 87 00 00 	mov    %rax,0x8797(%rip)        # ffffffff80008d60 <boot_info+0x40>
ffffffff800005c9:	48 89 d0             	mov    %rdx,%rax
        if (current_tag->identifier == id) {
ffffffff800005cc:	48 b9 bd b6 47 40 a6 	movabs $0x5df266a64047b6bd,%rcx
ffffffff800005d3:	66 f2 5d 
ffffffff800005d6:	eb 15                	jmp    ffffffff800005ed <_start+0x14d>
ffffffff800005d8:	0f 1f 84 00 00 00 00 	nopl   0x0(%rax,%rax,1)
ffffffff800005df:	00 
        current_tag = (void *)current_tag->next;
ffffffff800005e0:	48 8b 40 08          	mov    0x8(%rax),%rax
        if (current_tag == NULL) {
ffffffff800005e4:	48 85 c0             	test   %rax,%rax
ffffffff800005e7:	0f 84 9e 00 00 00    	je     ffffffff8000068b <_start+0x1eb>
        if (current_tag->identifier == id) {
ffffffff800005ed:	48 39 08             	cmp    %rcx,(%rax)
ffffffff800005f0:	75 ee                	jne    ffffffff800005e0 <_start+0x140>
        for( ;; )
            asm("hlt");
    }

    //Protected Memory Ranges
    boot_info.tag_pmrs = stivale2_get_tag(stivale2_struct, STIVALE2_STRUCT_TAG_PMRS_ID);
ffffffff800005f2:	48 89 05 6f 87 00 00 	mov    %rax,0x876f(%rip)        # ffffffff80008d68 <boot_info+0x48>
        if (current_tag->identifier == id) {
ffffffff800005f9:	48 b8 ce 04 de aa 66 	movabs $0x4b6fe466aade04ce,%rax
ffffffff80000600:	e4 6f 4b 
ffffffff80000603:	eb 0c                	jmp    ffffffff80000611 <_start+0x171>
ffffffff80000605:	0f 1f 00             	nopl   (%rax)
        current_tag = (void *)current_tag->next;
ffffffff80000608:	48 8b 52 08          	mov    0x8(%rdx),%rdx
        if (current_tag == NULL) {
ffffffff8000060c:	48 85 d2             	test   %rdx,%rdx
ffffffff8000060f:	74 6a                	je     ffffffff8000067b <_start+0x1db>
        if (current_tag->identifier == id) {
ffffffff80000611:	48 39 02             	cmp    %rax,(%rdx)
ffffffff80000614:	75 f2                	jne    ffffffff80000608 <_start+0x168>
{
ffffffff80000616:	55                   	push   %rbp
    {
        for( ;; )
            asm("hlt");
    }

    kernel();
ffffffff80000617:	31 c0                	xor    %eax,%eax
    boot_info.tag_modules = stivale2_get_tag(stivale2_struct, STIVALE2_STRUCT_TAG_MODULES_ID);
ffffffff80000619:	48 89 15 28 87 00 00 	mov    %rdx,0x8728(%rip)        # ffffffff80008d48 <boot_info+0x28>
{
ffffffff80000620:	48 89 e5             	mov    %rsp,%rbp
    kernel();
ffffffff80000623:	e8 78 12 00 00       	callq  ffffffff800018a0 <kernel>
    boot_info.tag_framebuffer = stivale2_get_tag(stivale2_struct, STIVALE2_STRUCT_TAG_FRAMEBUFFER_ID);
ffffffff80000628:	45 31 c9             	xor    %r9d,%r9d
ffffffff8000062b:	4c 89 0d 0e 87 00 00 	mov    %r9,0x870e(%rip)        # ffffffff80008d40 <boot_info+0x20>
ffffffff80000632:	66 0f 1f 44 00 00    	nopw   0x0(%rax,%rax,1)
            asm("hlt");
ffffffff80000638:	f4                   	hlt    
        for( ;; ) 
ffffffff80000639:	eb fd                	jmp    ffffffff80000638 <_start+0x198>
    boot_info.tag_memmap = stivale2_get_tag(stivale2_struct, STIVALE2_STRUCT_TAG_MEMMAP_ID);
ffffffff8000063b:	31 c0                	xor    %eax,%eax
ffffffff8000063d:	48 89 05 f4 86 00 00 	mov    %rax,0x86f4(%rip)        # ffffffff80008d38 <boot_info+0x18>
    if (boot_info.tag_memmap == NULL)
ffffffff80000644:	0f 1f 40 00          	nopl   0x0(%rax)
            asm("hlt");
ffffffff80000648:	f4                   	hlt    
        for( ;; ) 
ffffffff80000649:	eb fd                	jmp    ffffffff80000648 <_start+0x1a8>
    boot_info.tag_kernel_base_address = stivale2_get_tag(stivale2_struct, STIVALE2_STRUCT_TAG_KERNEL_BASE_ADDRESS_ID);
ffffffff8000064b:	31 d2                	xor    %edx,%edx
ffffffff8000064d:	48 89 15 d4 86 00 00 	mov    %rdx,0x86d4(%rip)        # ffffffff80008d28 <boot_info+0x8>
    if (boot_info.tag_kernel_base_address == NULL)
ffffffff80000654:	0f 1f 40 00          	nopl   0x0(%rax)
            asm("hlt");
ffffffff80000658:	f4                   	hlt    
        for( ;; ) 
ffffffff80000659:	eb fd                	jmp    ffffffff80000658 <_start+0x1b8>
    boot_info.tag_rsdp = stivale2_get_tag(stivale2_struct, STIVALE2_STRUCT_TAG_RSDP_ID);
ffffffff8000065b:	31 c9                	xor    %ecx,%ecx
ffffffff8000065d:	48 89 0d ec 86 00 00 	mov    %rcx,0x86ec(%rip)        # ffffffff80008d50 <boot_info+0x30>
    if (boot_info.tag_rsdp == NULL)
ffffffff80000664:	0f 1f 40 00          	nopl   0x0(%rax)
            asm("hlt");
ffffffff80000668:	f4                   	hlt    
        for( ;; )
ffffffff80000669:	eb fd                	jmp    ffffffff80000668 <_start+0x1c8>
    boot_info.tag_hhdm = stivale2_get_tag(stivale2_struct, STIVALE2_STRUCT_TAG_HHDM_ID);
ffffffff8000066b:	31 f6                	xor    %esi,%esi
ffffffff8000066d:	48 89 35 ec 86 00 00 	mov    %rsi,0x86ec(%rip)        # ffffffff80008d60 <boot_info+0x40>
    if (boot_info.tag_hhdm == NULL)
ffffffff80000674:	0f 1f 40 00          	nopl   0x0(%rax)
            asm("hlt");
ffffffff80000678:	f4                   	hlt    
        for( ;; )
ffffffff80000679:	eb fd                	jmp    ffffffff80000678 <_start+0x1d8>
    boot_info.tag_modules = stivale2_get_tag(stivale2_struct, STIVALE2_STRUCT_TAG_MODULES_ID);
ffffffff8000067b:	45 31 c0             	xor    %r8d,%r8d
ffffffff8000067e:	4c 89 05 c3 86 00 00 	mov    %r8,0x86c3(%rip)        # ffffffff80008d48 <boot_info+0x28>
    if (boot_info.tag_modules == NULL)
ffffffff80000685:	0f 1f 00             	nopl   (%rax)
            asm("hlt");
ffffffff80000688:	f4                   	hlt    
        for( ;; )
ffffffff80000689:	eb fd                	jmp    ffffffff80000688 <_start+0x1e8>
    boot_info.tag_pmrs = stivale2_get_tag(stivale2_struct, STIVALE2_STRUCT_TAG_PMRS_ID);
ffffffff8000068b:	31 ff                	xor    %edi,%edi
ffffffff8000068d:	48 89 3d d4 86 00 00 	mov    %rdi,0x86d4(%rip)        # ffffffff80008d68 <boot_info+0x48>
    if (boot_info.tag_pmrs == NULL)
ffffffff80000694:	0f 1f 40 00          	nopl   0x0(%rax)
            asm("hlt");
ffffffff80000698:	f4                   	hlt    
        for( ;; )
ffffffff80000699:	eb fd                	jmp    ffffffff80000698 <_start+0x1f8>
ffffffff8000069b:	0f 1f 44 00 00       	nopl   0x0(%rax,%rax,1)

ffffffff800006a0 <acpi_init>:
    struct RSDP20Descriptor* rsdp;

}ACPI_Info;

void acpi_init()
{
ffffffff800006a0:	55                   	push   %rbp
ffffffff800006a1:	48 89 e5             	mov    %rsp,%rbp
ffffffff800006a4:	48 83 ec 10          	sub    $0x10,%rsp
    ACPI_Info.rsdp = (struct RSDP20Descriptor*)boot_info.tag_rsdp->rsdp;
ffffffff800006a8:	48 8b 05 a1 86 00 00 	mov    0x86a1(%rip),%rax        # ffffffff80008d50 <boot_info+0x30>
ffffffff800006af:	48 8b 50 10          	mov    0x10(%rax),%rdx
    
    uint8_t test[8] = {'R', 'S', 'P', ' ', 'P', 'T', 'R', ' '};
ffffffff800006b3:	48 b8 52 53 50 20 50 	movabs $0x2052545020505352,%rax
ffffffff800006ba:	54 52 20 
ffffffff800006bd:	48 89 45 f8          	mov    %rax,-0x8(%rbp)
ffffffff800006c1:	31 c0                	xor    %eax,%eax
    ACPI_Info.rsdp = (struct RSDP20Descriptor*)boot_info.tag_rsdp->rsdp;
ffffffff800006c3:	48 89 15 b6 96 00 00 	mov    %rdx,0x96b6(%rip)        # ffffffff80009d80 <ACPI_Info>
    for(uint32_t i = 0; i < 8; i++)
    {
        if(test[i] == ACPI_Info.rsdp->header.signature[i]) 
ffffffff800006ca:	0f b6 0c 02          	movzbl (%rdx,%rax,1),%ecx
ffffffff800006ce:	38 4c 05 f8          	cmp    %cl,-0x8(%rbp,%rax,1)
ffffffff800006d2:	74 0c                	je     ffffffff800006e0 <acpi_init+0x40>
            return;
    }

    printf("Valid RSDP Header. Revision %d\n", ACPI_Info.rsdp->header.revision);
    
ffffffff800006d4:	c9                   	leaveq 
ffffffff800006d5:	c3                   	retq   
ffffffff800006d6:	66 2e 0f 1f 84 00 00 	nopw   %cs:0x0(%rax,%rax,1)
ffffffff800006dd:	00 00 00 
    for(uint32_t i = 0; i < 8; i++)
ffffffff800006e0:	48 83 c0 01          	add    $0x1,%rax
ffffffff800006e4:	48 83 f8 08          	cmp    $0x8,%rax
ffffffff800006e8:	75 e0                	jne    ffffffff800006ca <acpi_init+0x2a>
    printf("Valid RSDP Header. Revision %d\n", ACPI_Info.rsdp->header.revision);
ffffffff800006ea:	0f b6 72 0f          	movzbl 0xf(%rdx),%esi
ffffffff800006ee:	48 c7 c7 80 52 00 80 	mov    $0xffffffff80005280,%rdi
ffffffff800006f5:	31 c0                	xor    %eax,%eax
ffffffff800006f7:	c9                   	leaveq 
    printf("Valid RSDP Header. Revision %d\n", ACPI_Info.rsdp->header.revision);
ffffffff800006f8:	e9 b3 38 00 00       	jmpq   ffffffff80003fb0 <printf_>
ffffffff800006fd:	0f 1f 00             	nopl   (%rax)

ffffffff80000700 <console_input>:
    //write the output buffer to screen
}

void console_input(KEY_INFO_t key)
{
    con_input_buffer.index++;
ffffffff80000700:	48 8b 05 d9 96 00 00 	mov    0x96d9(%rip),%rax        # ffffffff80009de0 <con_input_buffer+0x10>
ffffffff80000707:	66 c1 ef 08          	shr    $0x8,%di
ffffffff8000070b:	48 8d 50 01          	lea    0x1(%rax),%rdx
ffffffff8000070f:	48 89 15 ca 96 00 00 	mov    %rdx,0x96ca(%rip)        # ffffffff80009de0 <con_input_buffer+0x10>
    con_input_buffer.buffer[con_input_buffer.index] = key.ascii;
ffffffff80000716:	48 8b 15 b3 96 00 00 	mov    0x96b3(%rip),%rdx        # ffffffff80009dd0 <con_input_buffer>
ffffffff8000071d:	40 88 7c 02 01       	mov    %dil,0x1(%rdx,%rax,1)
    

    con_output_buffer.buffer[con_output_buffer.index] = key.ascii;
ffffffff80000722:	48 8b 05 e7 97 00 00 	mov    0x97e7(%rip),%rax        # ffffffff80009f10 <con_output_buffer+0x10>
ffffffff80000729:	48 8b 15 d0 97 00 00 	mov    0x97d0(%rip),%rdx        # ffffffff80009f00 <con_output_buffer>
ffffffff80000730:	40 88 3c 02          	mov    %dil,(%rdx,%rax,1)
    con_output_buffer.index++;
ffffffff80000734:	48 8b 05 d5 97 00 00 	mov    0x97d5(%rip),%rax        # ffffffff80009f10 <con_output_buffer+0x10>
ffffffff8000073b:	48 8d 50 01          	lea    0x1(%rax),%rdx
ffffffff8000073f:	48 89 15 ca 97 00 00 	mov    %rdx,0x97ca(%rip)        # ffffffff80009f10 <con_output_buffer+0x10>
    con_output_buffer.buffer[con_output_buffer.index] = 0x00;
ffffffff80000746:	48 8b 15 b3 97 00 00 	mov    0x97b3(%rip),%rdx        # ffffffff80009f00 <con_output_buffer>
ffffffff8000074d:	c6 44 02 01 00       	movb   $0x0,0x1(%rdx,%rax,1)
    return;
ffffffff80000752:	c3                   	retq   
ffffffff80000753:	66 66 2e 0f 1f 84 00 	data16 nopw %cs:0x0(%rax,%rax,1)
ffffffff8000075a:	00 00 00 00 
ffffffff8000075e:	66 90                	xchg   %ax,%ax

ffffffff80000760 <putchar>:
    switch(c)
ffffffff80000760:	40 80 ff 0a          	cmp    $0xa,%dil
ffffffff80000764:	0f 84 36 01 00 00    	je     ffffffff800008a0 <putchar+0x140>
ffffffff8000076a:	40 80 ff 0d          	cmp    $0xd,%dil
ffffffff8000076e:	0f 84 fc 00 00 00    	je     ffffffff80000870 <putchar+0x110>
ffffffff80000774:	40 80 ff 09          	cmp    $0x9,%dil
ffffffff80000778:	0f 84 cd 00 00 00    	je     ffffffff8000084b <putchar+0xeb>
{
ffffffff8000077e:	55                   	push   %rbp
ffffffff8000077f:	48 89 e5             	mov    %rsp,%rbp
ffffffff80000782:	41 57                	push   %r15
ffffffff80000784:	41 56                	push   %r14
ffffffff80000786:	41 55                	push   %r13
    switch(c)
ffffffff80000788:	44 0f b6 ef          	movzbl %dil,%r13d
{
ffffffff8000078c:	41 54                	push   %r12
    uint8_t* glyph = (uint8_t*)&_binary_zapl16_psf_start + 4 + (c * PSF1_FONT_HEIGHT);
ffffffff8000078e:	41 c1 e5 04          	shl    $0x4,%r13d
{
ffffffff80000792:	53                   	push   %rbx
    uint8_t* glyph = (uint8_t*)&_binary_zapl16_psf_start + 4 + (c * PSF1_FONT_HEIGHT);
ffffffff80000793:	41 83 c5 04          	add    $0x4,%r13d
ffffffff80000797:	4d 63 ed             	movslq %r13d,%r13
ffffffff8000079a:	49 8d 8d f8 77 00 80 	lea    -0x7fff8808(%r13),%rcx
{
ffffffff800007a1:	48 83 ec 28          	sub    $0x28,%rsp
    console_drawchar(c, console_info.cursor_x, console_info.cursor_y, console_info.foreground_color, console_info.background_color);
ffffffff800007a5:	8b 05 fd 95 00 00    	mov    0x95fd(%rip),%eax        # ffffffff80009da8 <console_info+0x8>
ffffffff800007ab:	48 89 4d c0          	mov    %rcx,-0x40(%rbp)
ffffffff800007af:	0f b7 1d fc 95 00 00 	movzwl 0x95fc(%rip),%ebx        # ffffffff80009db2 <console_info+0x12>
ffffffff800007b6:	44 8b 35 ef 95 00 00 	mov    0x95ef(%rip),%r14d        # ffffffff80009dac <console_info+0xc>
ffffffff800007bd:	89 45 cc             	mov    %eax,-0x34(%rbp)
ffffffff800007c0:	0f b7 05 e9 95 00 00 	movzwl 0x95e9(%rip),%eax        # ffffffff80009db0 <console_info+0x10>
ffffffff800007c7:	8d 4b 10             	lea    0x10(%rbx),%ecx
ffffffff800007ca:	89 45 c8             	mov    %eax,-0x38(%rbp)
    for (uint32_t i = 0; i < 16; i++)
ffffffff800007cd:	44 8d 60 08          	lea    0x8(%rax),%r12d
ffffffff800007d1:	89 4d bc             	mov    %ecx,-0x44(%rbp)
ffffffff800007d4:	0f 1f 40 00          	nopl   0x0(%rax)
        row = glyph[i];
ffffffff800007d8:	48 8b 45 c0          	mov    -0x40(%rbp),%rax
ffffffff800007dc:	44 8b 7d c8          	mov    -0x38(%rbp),%r15d
ffffffff800007e0:	44 0f b6 28          	movzbl (%rax),%r13d
        for (uint32_t j = 0; j < 8; j++)
ffffffff800007e4:	eb 23                	jmp    ffffffff80000809 <putchar+0xa9>
ffffffff800007e6:	66 2e 0f 1f 84 00 00 	nopw   %cs:0x0(%rax,%rax,1)
ffffffff800007ed:	00 00 00 
                fb_putpixel(x+j, y+i, background);
ffffffff800007f0:	44 89 ff             	mov    %r15d,%edi
ffffffff800007f3:	44 89 f2             	mov    %r14d,%edx
ffffffff800007f6:	89 de                	mov    %ebx,%esi
        for (uint32_t j = 0; j < 8; j++)
ffffffff800007f8:	41 83 c7 01          	add    $0x1,%r15d
                fb_putpixel(x+j, y+i, background);
ffffffff800007fc:	e8 4f 04 00 00       	callq  ffffffff80000c50 <fb_putpixel>
            row = row << 1;
ffffffff80000801:	45 01 ed             	add    %r13d,%r13d
        for (uint32_t j = 0; j < 8; j++)
ffffffff80000804:	45 39 fc             	cmp    %r15d,%r12d
ffffffff80000807:	74 1e                	je     ffffffff80000827 <putchar+0xc7>
            if(row & 0x80)
ffffffff80000809:	45 84 ed             	test   %r13b,%r13b
ffffffff8000080c:	79 e2                	jns    ffffffff800007f0 <putchar+0x90>
                fb_putpixel(x+j, y+i, foreground);
ffffffff8000080e:	8b 55 cc             	mov    -0x34(%rbp),%edx
ffffffff80000811:	44 89 ff             	mov    %r15d,%edi
ffffffff80000814:	89 de                	mov    %ebx,%esi
        for (uint32_t j = 0; j < 8; j++)
ffffffff80000816:	41 83 c7 01          	add    $0x1,%r15d
            row = row << 1;
ffffffff8000081a:	45 01 ed             	add    %r13d,%r13d
                fb_putpixel(x+j, y+i, foreground);
ffffffff8000081d:	e8 2e 04 00 00       	callq  ffffffff80000c50 <fb_putpixel>
        for (uint32_t j = 0; j < 8; j++)
ffffffff80000822:	45 39 fc             	cmp    %r15d,%r12d
ffffffff80000825:	75 e2                	jne    ffffffff80000809 <putchar+0xa9>
    for (uint32_t i = 0; i < 16; i++)
ffffffff80000827:	48 83 45 c0 01       	addq   $0x1,-0x40(%rbp)
ffffffff8000082c:	83 c3 01             	add    $0x1,%ebx
ffffffff8000082f:	39 5d bc             	cmp    %ebx,-0x44(%rbp)
ffffffff80000832:	75 a4                	jne    ffffffff800007d8 <putchar+0x78>
    console_info.cursor_x += 8;
ffffffff80000834:	66 83 05 74 95 00 00 	addw   $0x8,0x9574(%rip)        # ffffffff80009db0 <console_info+0x10>
ffffffff8000083b:	08 
}
ffffffff8000083c:	48 83 c4 28          	add    $0x28,%rsp
ffffffff80000840:	5b                   	pop    %rbx
ffffffff80000841:	41 5c                	pop    %r12
ffffffff80000843:	41 5d                	pop    %r13
ffffffff80000845:	41 5e                	pop    %r14
ffffffff80000847:	41 5f                	pop    %r15
ffffffff80000849:	5d                   	pop    %rbp
ffffffff8000084a:	c3                   	retq   
            if((console_info.cursor_x += (PSF1_FONT_WIDTH * 4)) < fb_info.width)
ffffffff8000084b:	0f b7 05 5e 95 00 00 	movzwl 0x955e(%rip),%eax        # ffffffff80009db0 <console_info+0x10>
ffffffff80000852:	0f b7 15 d1 a6 00 00 	movzwl 0xa6d1(%rip),%edx        # ffffffff8000af2a <fb_info+0xa>
ffffffff80000859:	8d 48 20             	lea    0x20(%rax),%ecx
ffffffff8000085c:	66 39 d1             	cmp    %dx,%cx
ffffffff8000085f:	0f 83 46 01 00 00    	jae    ffffffff800009ab <putchar+0x24b>
                console_info.cursor_x += (PSF1_FONT_WIDTH * 4);
ffffffff80000865:	83 c0 40             	add    $0x40,%eax
ffffffff80000868:	66 89 05 41 95 00 00 	mov    %ax,0x9541(%rip)        # ffffffff80009db0 <console_info+0x10>
                return;
ffffffff8000086f:	c3                   	retq   
    console_info.cursor_y += PSF1_FONT_HEIGHT;
ffffffff80000870:	0f b7 05 3b 95 00 00 	movzwl 0x953b(%rip),%eax        # ffffffff80009db2 <console_info+0x12>
    if (console_info.cursor_y > fb_info.height - PSF1_FONT_HEIGHT)
ffffffff80000877:	0f b7 15 aa a6 00 00 	movzwl 0xa6aa(%rip),%edx        # ffffffff8000af28 <fb_info+0x8>
    console_info.cursor_x = 0;
ffffffff8000087e:	31 f6                	xor    %esi,%esi
ffffffff80000880:	66 89 35 29 95 00 00 	mov    %si,0x9529(%rip)        # ffffffff80009db0 <console_info+0x10>
    console_info.cursor_y += PSF1_FONT_HEIGHT;
ffffffff80000887:	83 c0 10             	add    $0x10,%eax
    if (console_info.cursor_y > fb_info.height - PSF1_FONT_HEIGHT)
ffffffff8000088a:	8d 4a f1             	lea    -0xf(%rdx),%ecx
    console_info.cursor_y += PSF1_FONT_HEIGHT;
ffffffff8000088d:	66 89 05 1e 95 00 00 	mov    %ax,0x951e(%rip)        # ffffffff80009db2 <console_info+0x12>
    if (console_info.cursor_y > fb_info.height - PSF1_FONT_HEIGHT)
ffffffff80000894:	0f b7 c0             	movzwl %ax,%eax
ffffffff80000897:	39 c1                	cmp    %eax,%ecx
ffffffff80000899:	0f 8e 9c 00 00 00    	jle    ffffffff8000093b <putchar+0x1db>
ffffffff8000089f:	c3                   	retq   
    console_info.cursor_y += PSF1_FONT_HEIGHT;
ffffffff800008a0:	0f b7 05 0b 95 00 00 	movzwl 0x950b(%rip),%eax        # ffffffff80009db2 <console_info+0x12>
    if (console_info.cursor_y > fb_info.height - PSF1_FONT_HEIGHT)
ffffffff800008a7:	0f b7 15 7a a6 00 00 	movzwl 0xa67a(%rip),%edx        # ffffffff8000af28 <fb_info+0x8>
    console_info.cursor_x = 0;
ffffffff800008ae:	31 ff                	xor    %edi,%edi
ffffffff800008b0:	66 89 3d f9 94 00 00 	mov    %di,0x94f9(%rip)        # ffffffff80009db0 <console_info+0x10>
    console_info.cursor_y += PSF1_FONT_HEIGHT;
ffffffff800008b7:	83 c0 10             	add    $0x10,%eax
    if (console_info.cursor_y > fb_info.height - PSF1_FONT_HEIGHT)
ffffffff800008ba:	8d 4a f1             	lea    -0xf(%rdx),%ecx
    console_info.cursor_y += PSF1_FONT_HEIGHT;
ffffffff800008bd:	66 89 05 ee 94 00 00 	mov    %ax,0x94ee(%rip)        # ffffffff80009db2 <console_info+0x12>
    if (console_info.cursor_y > fb_info.height - PSF1_FONT_HEIGHT)
ffffffff800008c4:	0f b7 c0             	movzwl %ax,%eax
ffffffff800008c7:	39 c1                	cmp    %eax,%ecx
ffffffff800008c9:	7f d4                	jg     ffffffff8000089f <putchar+0x13f>
    start_index = fb_info.width * 16 * 4;
ffffffff800008cb:	0f b7 05 58 a6 00 00 	movzwl 0xa658(%rip),%eax        # ffffffff8000af2a <fb_info+0xa>
    uint32_t* base = (uint32_t*)fb_info.base;
ffffffff800008d2:	4c 8b 0d 47 a6 00 00 	mov    0xa647(%rip),%r9        # ffffffff8000af20 <fb_info>
    finish_index = (fb_info.height * fb_info.width) - start_index;
ffffffff800008d9:	0f af d0             	imul   %eax,%edx
    start_index = fb_info.width * 16 * 4;
ffffffff800008dc:	89 c1                	mov    %eax,%ecx
ffffffff800008de:	c1 e1 06             	shl    $0x6,%ecx
ffffffff800008e1:	48 63 c9             	movslq %ecx,%rcx
    finish_index = (fb_info.height * fb_info.width) - start_index;
ffffffff800008e4:	4c 63 d2             	movslq %edx,%r10
    end_index = fb_info.height * fb_info.width - 1;
ffffffff800008e7:	83 ea 01             	sub    $0x1,%edx
    for(uint64_t i = 0; i < finish_index; i++)
ffffffff800008ea:	4d 89 d0             	mov    %r10,%r8
    end_index = fb_info.height * fb_info.width - 1;
ffffffff800008ed:	48 63 f2             	movslq %edx,%rsi
    for(uint64_t i = 0; i < finish_index; i++)
ffffffff800008f0:	49 29 c8             	sub    %rcx,%r8
ffffffff800008f3:	74 1a                	je     ffffffff8000090f <putchar+0x1af>
ffffffff800008f5:	4b 8d 3c 81          	lea    (%r9,%r8,4),%rdi
ffffffff800008f9:	48 c1 e1 02          	shl    $0x2,%rcx
ffffffff800008fd:	4c 89 c8             	mov    %r9,%rax
        base[i] = base[start_index + i];
ffffffff80000900:	8b 14 08             	mov    (%rax,%rcx,1),%edx
    for(uint64_t i = 0; i < finish_index; i++)
ffffffff80000903:	48 83 c0 04          	add    $0x4,%rax
        base[i] = base[start_index + i];
ffffffff80000907:	89 50 fc             	mov    %edx,-0x4(%rax)
    for(uint64_t i = 0; i < finish_index; i++)
ffffffff8000090a:	48 39 f8             	cmp    %rdi,%rax
ffffffff8000090d:	75 f1                	jne    ffffffff80000900 <putchar+0x1a0>
    for(uint64_t i = finish_index + 1; i < end_index; i++)
ffffffff8000090f:	49 8d 40 01          	lea    0x1(%r8),%rax
ffffffff80000913:	48 39 f0             	cmp    %rsi,%rax
ffffffff80000916:	0f 83 2e 01 00 00    	jae    ffffffff80000a4a <putchar+0x2ea>
ffffffff8000091c:	49 8d 04 81          	lea    (%r9,%rax,4),%rax
ffffffff80000920:	4b 8d 4c 91 fc       	lea    -0x4(%r9,%r10,4),%rcx
ffffffff80000925:	0f 1f 00             	nopl   (%rax)
        base[i] = console_info.background_color;
ffffffff80000928:	8b 15 7e 94 00 00    	mov    0x947e(%rip),%edx        # ffffffff80009dac <console_info+0xc>
    for(uint64_t i = finish_index + 1; i < end_index; i++)
ffffffff8000092e:	48 83 c0 04          	add    $0x4,%rax
        base[i] = console_info.background_color;
ffffffff80000932:	89 50 fc             	mov    %edx,-0x4(%rax)
    for(uint64_t i = finish_index + 1; i < end_index; i++)
ffffffff80000935:	48 39 c8             	cmp    %rcx,%rax
ffffffff80000938:	75 ee                	jne    ffffffff80000928 <putchar+0x1c8>
ffffffff8000093a:	c3                   	retq   
    start_index = fb_info.width * 16 * 4;
ffffffff8000093b:	0f b7 05 e8 a5 00 00 	movzwl 0xa5e8(%rip),%eax        # ffffffff8000af2a <fb_info+0xa>
    uint32_t* base = (uint32_t*)fb_info.base;
ffffffff80000942:	4c 8b 0d d7 a5 00 00 	mov    0xa5d7(%rip),%r9        # ffffffff8000af20 <fb_info>
    finish_index = (fb_info.height * fb_info.width) - start_index;
ffffffff80000949:	0f af d0             	imul   %eax,%edx
    start_index = fb_info.width * 16 * 4;
ffffffff8000094c:	89 c1                	mov    %eax,%ecx
ffffffff8000094e:	c1 e1 06             	shl    $0x6,%ecx
ffffffff80000951:	48 63 c9             	movslq %ecx,%rcx
    finish_index = (fb_info.height * fb_info.width) - start_index;
ffffffff80000954:	4c 63 d2             	movslq %edx,%r10
    end_index = fb_info.height * fb_info.width - 1;
ffffffff80000957:	83 ea 01             	sub    $0x1,%edx
    for(uint64_t i = 0; i < finish_index; i++)
ffffffff8000095a:	4d 89 d0             	mov    %r10,%r8
    end_index = fb_info.height * fb_info.width - 1;
ffffffff8000095d:	48 63 f2             	movslq %edx,%rsi
    for(uint64_t i = 0; i < finish_index; i++)
ffffffff80000960:	49 29 c8             	sub    %rcx,%r8
ffffffff80000963:	74 1a                	je     ffffffff8000097f <putchar+0x21f>
ffffffff80000965:	4b 8d 3c 81          	lea    (%r9,%r8,4),%rdi
ffffffff80000969:	48 c1 e1 02          	shl    $0x2,%rcx
ffffffff8000096d:	4c 89 c8             	mov    %r9,%rax
        base[i] = base[start_index + i];
ffffffff80000970:	8b 14 08             	mov    (%rax,%rcx,1),%edx
    for(uint64_t i = 0; i < finish_index; i++)
ffffffff80000973:	48 83 c0 04          	add    $0x4,%rax
        base[i] = base[start_index + i];
ffffffff80000977:	89 50 fc             	mov    %edx,-0x4(%rax)
    for(uint64_t i = 0; i < finish_index; i++)
ffffffff8000097a:	48 39 f8             	cmp    %rdi,%rax
ffffffff8000097d:	75 f1                	jne    ffffffff80000970 <putchar+0x210>
    for(uint64_t i = finish_index + 1; i < end_index; i++)
ffffffff8000097f:	49 8d 40 01          	lea    0x1(%r8),%rax
ffffffff80000983:	48 39 f0             	cmp    %rsi,%rax
ffffffff80000986:	0f 83 bd 00 00 00    	jae    ffffffff80000a49 <putchar+0x2e9>
ffffffff8000098c:	49 8d 04 81          	lea    (%r9,%rax,4),%rax
ffffffff80000990:	4b 8d 4c 91 fc       	lea    -0x4(%r9,%r10,4),%rcx
ffffffff80000995:	0f 1f 00             	nopl   (%rax)
        base[i] = console_info.background_color;
ffffffff80000998:	8b 15 0e 94 00 00    	mov    0x940e(%rip),%edx        # ffffffff80009dac <console_info+0xc>
    for(uint64_t i = finish_index + 1; i < end_index; i++)
ffffffff8000099e:	48 83 c0 04          	add    $0x4,%rax
        base[i] = console_info.background_color;
ffffffff800009a2:	89 50 fc             	mov    %edx,-0x4(%rax)
    for(uint64_t i = finish_index + 1; i < end_index; i++)
ffffffff800009a5:	48 39 c8             	cmp    %rcx,%rax
ffffffff800009a8:	75 ee                	jne    ffffffff80000998 <putchar+0x238>
ffffffff800009aa:	c3                   	retq   
    console_info.cursor_y += PSF1_FONT_HEIGHT;
ffffffff800009ab:	0f b7 05 00 94 00 00 	movzwl 0x9400(%rip),%eax        # ffffffff80009db2 <console_info+0x12>
    console_info.cursor_x = 0;
ffffffff800009b2:	31 c9                	xor    %ecx,%ecx
ffffffff800009b4:	66 89 0d f5 93 00 00 	mov    %cx,0x93f5(%rip)        # ffffffff80009db0 <console_info+0x10>
    if (console_info.cursor_y > fb_info.height - PSF1_FONT_HEIGHT)
ffffffff800009bb:	0f b7 0d 66 a5 00 00 	movzwl 0xa566(%rip),%ecx        # ffffffff8000af28 <fb_info+0x8>
    console_info.cursor_y += PSF1_FONT_HEIGHT;
ffffffff800009c2:	83 c0 10             	add    $0x10,%eax
ffffffff800009c5:	66 89 05 e6 93 00 00 	mov    %ax,0x93e6(%rip)        # ffffffff80009db2 <console_info+0x12>
    if (console_info.cursor_y > fb_info.height - PSF1_FONT_HEIGHT)
ffffffff800009cc:	8d 71 f1             	lea    -0xf(%rcx),%esi
ffffffff800009cf:	0f b7 c0             	movzwl %ax,%eax
ffffffff800009d2:	39 c6                	cmp    %eax,%esi
ffffffff800009d4:	7e 0d                	jle    ffffffff800009e3 <putchar+0x283>
                console_info.cursor_x += (PSF1_FONT_WIDTH * 4);
ffffffff800009d6:	b8 20 00 00 00       	mov    $0x20,%eax
ffffffff800009db:	66 89 05 ce 93 00 00 	mov    %ax,0x93ce(%rip)        # ffffffff80009db0 <console_info+0x10>
                return;
ffffffff800009e2:	c3                   	retq   
    finish_index = (fb_info.height * fb_info.width) - start_index;
ffffffff800009e3:	0f af ca             	imul   %edx,%ecx
    start_index = fb_info.width * 16 * 4;
ffffffff800009e6:	89 d0                	mov    %edx,%eax
    uint32_t* base = (uint32_t*)fb_info.base;
ffffffff800009e8:	4c 8b 05 31 a5 00 00 	mov    0xa531(%rip),%r8        # ffffffff8000af20 <fb_info>
    start_index = fb_info.width * 16 * 4;
ffffffff800009ef:	c1 e0 06             	shl    $0x6,%eax
ffffffff800009f2:	48 98                	cltq   
    finish_index = (fb_info.height * fb_info.width) - start_index;
ffffffff800009f4:	4c 63 d1             	movslq %ecx,%r10
    end_index = fb_info.height * fb_info.width - 1;
ffffffff800009f7:	83 e9 01             	sub    $0x1,%ecx
    for(uint64_t i = 0; i < finish_index; i++)
ffffffff800009fa:	4d 89 d1             	mov    %r10,%r9
    end_index = fb_info.height * fb_info.width - 1;
ffffffff800009fd:	48 63 c9             	movslq %ecx,%rcx
    for(uint64_t i = 0; i < finish_index; i++)
ffffffff80000a00:	49 29 c1             	sub    %rax,%r9
ffffffff80000a03:	74 1e                	je     ffffffff80000a23 <putchar+0x2c3>
ffffffff80000a05:	48 8d 14 85 00 00 00 	lea    0x0(,%rax,4),%rdx
ffffffff80000a0c:	00 
ffffffff80000a0d:	4b 8d 3c 88          	lea    (%r8,%r9,4),%rdi
ffffffff80000a11:	4c 89 c0             	mov    %r8,%rax
        base[i] = base[start_index + i];
ffffffff80000a14:	8b 34 02             	mov    (%rdx,%rax,1),%esi
    for(uint64_t i = 0; i < finish_index; i++)
ffffffff80000a17:	48 83 c0 04          	add    $0x4,%rax
        base[i] = base[start_index + i];
ffffffff80000a1b:	89 70 fc             	mov    %esi,-0x4(%rax)
    for(uint64_t i = 0; i < finish_index; i++)
ffffffff80000a1e:	48 39 f8             	cmp    %rdi,%rax
ffffffff80000a21:	75 f1                	jne    ffffffff80000a14 <putchar+0x2b4>
    for(uint64_t i = finish_index + 1; i < end_index; i++)
ffffffff80000a23:	49 8d 41 01          	lea    0x1(%r9),%rax
ffffffff80000a27:	48 39 c8             	cmp    %rcx,%rax
ffffffff80000a2a:	73 aa                	jae    ffffffff800009d6 <putchar+0x276>
ffffffff80000a2c:	49 8d 04 80          	lea    (%r8,%rax,4),%rax
ffffffff80000a30:	4b 8d 4c 90 fc       	lea    -0x4(%r8,%r10,4),%rcx
        base[i] = console_info.background_color;
ffffffff80000a35:	8b 15 71 93 00 00    	mov    0x9371(%rip),%edx        # ffffffff80009dac <console_info+0xc>
    for(uint64_t i = finish_index + 1; i < end_index; i++)
ffffffff80000a3b:	48 83 c0 04          	add    $0x4,%rax
        base[i] = console_info.background_color;
ffffffff80000a3f:	89 50 fc             	mov    %edx,-0x4(%rax)
    for(uint64_t i = finish_index + 1; i < end_index; i++)
ffffffff80000a42:	48 39 c1             	cmp    %rax,%rcx
ffffffff80000a45:	75 ee                	jne    ffffffff80000a35 <putchar+0x2d5>
ffffffff80000a47:	eb 8d                	jmp    ffffffff800009d6 <putchar+0x276>
ffffffff80000a49:	c3                   	retq   
ffffffff80000a4a:	c3                   	retq   
ffffffff80000a4b:	0f 1f 44 00 00       	nopl   0x0(%rax,%rax,1)

ffffffff80000a50 <putstring>:
{
ffffffff80000a50:	55                   	push   %rbp
ffffffff80000a51:	48 89 e5             	mov    %rsp,%rbp
ffffffff80000a54:	53                   	push   %rbx
ffffffff80000a55:	48 89 fb             	mov    %rdi,%rbx
ffffffff80000a58:	48 83 ec 08          	sub    $0x8,%rsp
    while(*str)
ffffffff80000a5c:	0f b6 3f             	movzbl (%rdi),%edi
ffffffff80000a5f:	40 84 ff             	test   %dil,%dil
ffffffff80000a62:	74 16                	je     ffffffff80000a7a <putstring+0x2a>
ffffffff80000a64:	0f 1f 40 00          	nopl   0x0(%rax)
        putchar(*str);
ffffffff80000a68:	e8 f3 fc ff ff       	callq  ffffffff80000760 <putchar>
    while(*str)
ffffffff80000a6d:	0f b6 7b 01          	movzbl 0x1(%rbx),%edi
        str++;
ffffffff80000a71:	48 83 c3 01          	add    $0x1,%rbx
    while(*str)
ffffffff80000a75:	40 84 ff             	test   %dil,%dil
ffffffff80000a78:	75 ee                	jne    ffffffff80000a68 <putstring+0x18>
}
ffffffff80000a7a:	48 8b 5d f8          	mov    -0x8(%rbp),%rbx
ffffffff80000a7e:	c9                   	leaveq 
ffffffff80000a7f:	c3                   	retq   

ffffffff80000a80 <console_init>:
    console_info.max_lines = fb_info.height / PSF1_FONT_HEIGHT;
ffffffff80000a80:	0f b7 05 a1 a4 00 00 	movzwl 0xa4a1(%rip),%eax        # ffffffff8000af28 <fb_info+0x8>
    uint64_t index = y * fb_info.width;
ffffffff80000a87:	0f b7 3d 9c a4 00 00 	movzwl 0xa49c(%rip),%edi        # ffffffff8000af2a <fb_info+0xa>
    console_info.foreground_color = FB_COLOR_WHITE;
ffffffff80000a8e:	48 be ff ff ff ff 00 	movabs $0xff000000ffffffff,%rsi
ffffffff80000a95:	00 00 ff 
    console_info.font = (struct PSF1_FONT*)&_binary_zapl16_psf_start;
ffffffff80000a98:	48 c7 05 15 93 00 00 	movq   $0xffffffff800077f8,0x9315(%rip)        # ffffffff80009db8 <console_info+0x18>
ffffffff80000a9f:	f8 77 00 80 
    console_info.foreground_color = FB_COLOR_WHITE;
ffffffff80000aa3:	48 89 35 fe 92 00 00 	mov    %rsi,0x92fe(%rip)        # ffffffff80009da8 <console_info+0x8>
    console_info.cursor_x = 0;
ffffffff80000aaa:	c7 05 fc 92 00 00 00 	movl   $0x0,0x92fc(%rip)        # ffffffff80009db0 <console_info+0x10>
ffffffff80000ab1:	00 00 00 
    console_info.max_lines = fb_info.height / PSF1_FONT_HEIGHT;
ffffffff80000ab4:	89 c2                	mov    %eax,%edx
    console_info.start_pos = (fb_info.height / 4) * 3;
ffffffff80000ab6:	66 c1 e8 02          	shr    $0x2,%ax
    console_info.max_lines = fb_info.height / PSF1_FONT_HEIGHT;
ffffffff80000aba:	66 c1 ea 04          	shr    $0x4,%dx
    console_info.start_pos = (fb_info.height / 4) * 3;
ffffffff80000abe:	0f b7 c0             	movzwl %ax,%eax
    con_output_buffer.buffer = console_buffer;
ffffffff80000ac1:	48 c7 05 34 94 00 00 	movq   $0xffffffff80009f20,0x9434(%rip)        # ffffffff80009f00 <con_output_buffer>
ffffffff80000ac8:	20 9f 00 80 
    console_info.max_lines = fb_info.height / PSF1_FONT_HEIGHT;
ffffffff80000acc:	0f b7 d2             	movzwl %dx,%edx
    console_info.start_pos = (fb_info.height / 4) * 3;
ffffffff80000acf:	8d 04 40             	lea    (%rax,%rax,2),%eax
    con_output_buffer.buffer_size = sizeof(console_buffer);
ffffffff80000ad2:	48 c7 05 2b 94 00 00 	movq   $0x1000,0x942b(%rip)        # ffffffff80009f08 <con_output_buffer+0x8>
ffffffff80000ad9:	00 10 00 00 
    console_info.max_lines = fb_info.height / PSF1_FONT_HEIGHT;
ffffffff80000add:	89 15 c1 92 00 00    	mov    %edx,0x92c1(%rip)        # ffffffff80009da4 <console_info+0x4>
    console_draw_hline(console_info.start_pos, FB_COLOR_YELLOW);
ffffffff80000ae3:	48 63 d0             	movslq %eax,%rdx
    console_info.start_pos = (fb_info.height / 4) * 3;
ffffffff80000ae6:	89 05 b4 92 00 00    	mov    %eax,0x92b4(%rip)        # ffffffff80009da0 <console_info>
    uint64_t index = y * fb_info.width;
ffffffff80000aec:	48 0f af d7          	imul   %rdi,%rdx
    con_output_buffer.index = 0;
ffffffff80000af0:	48 c7 05 15 94 00 00 	movq   $0x0,0x9415(%rip)        # ffffffff80009f10 <con_output_buffer+0x10>
ffffffff80000af7:	00 00 00 00 
    con_input_buffer.buffer = cmd_buffer;
ffffffff80000afb:	48 c7 05 ca 92 00 00 	movq   $0xffffffff80009e00,0x92ca(%rip)        # ffffffff80009dd0 <con_input_buffer>
ffffffff80000b02:	00 9e 00 80 
    con_input_buffer.buffer_size = sizeof(cmd_buffer);
ffffffff80000b06:	48 c7 05 c7 92 00 00 	movq   $0x100,0x92c7(%rip)        # ffffffff80009dd8 <con_input_buffer+0x8>
ffffffff80000b0d:	00 01 00 00 
    for(int i = 0; i < fb_info.width; i++)
ffffffff80000b11:	66 85 ff             	test   %di,%di
ffffffff80000b14:	74 59                	je     ffffffff80000b6f <console_init+0xef>
        *((uint32_t*)fb_info.base + index + i) = color;
ffffffff80000b16:	48 8b 35 03 a4 00 00 	mov    0xa403(%rip),%rsi        # ffffffff8000af20 <fb_info>
ffffffff80000b1d:	44 8d 47 ff          	lea    -0x1(%rdi),%r8d
ffffffff80000b21:	48 8d 04 96          	lea    (%rsi,%rdx,4),%rax
ffffffff80000b25:	48 8d 4e 04          	lea    0x4(%rsi),%rcx
ffffffff80000b29:	4c 01 c2             	add    %r8,%rdx
ffffffff80000b2c:	48 8d 14 91          	lea    (%rcx,%rdx,4),%rdx
ffffffff80000b30:	c7 00 00 ff ff ff    	movl   $0xffffff00,(%rax)
    for(int i = 0; i < fb_info.width; i++)
ffffffff80000b36:	48 83 c0 04          	add    $0x4,%rax
ffffffff80000b3a:	48 39 d0             	cmp    %rdx,%rax
ffffffff80000b3d:	75 f1                	jne    ffffffff80000b30 <console_init+0xb0>
    console_draw_hline(console_info.start_pos + 1, FB_COLOR_YELLOW);
ffffffff80000b3f:	8b 05 5b 92 00 00    	mov    0x925b(%rip),%eax        # ffffffff80009da0 <console_info>
ffffffff80000b45:	8d 50 01             	lea    0x1(%rax),%edx
    uint64_t index = y * fb_info.width;
ffffffff80000b48:	48 0f af d7          	imul   %rdi,%rdx
    for(int i = 0; i < fb_info.width; i++)
ffffffff80000b4c:	48 8d 04 96          	lea    (%rsi,%rdx,4),%rax
ffffffff80000b50:	4c 01 c2             	add    %r8,%rdx
ffffffff80000b53:	48 8d 14 91          	lea    (%rcx,%rdx,4),%rdx
ffffffff80000b57:	66 0f 1f 84 00 00 00 	nopw   0x0(%rax,%rax,1)
ffffffff80000b5e:	00 00 
        *((uint32_t*)fb_info.base + index + i) = color;
ffffffff80000b60:	c7 00 00 ff ff ff    	movl   $0xffffff00,(%rax)
    for(int i = 0; i < fb_info.width; i++)
ffffffff80000b66:	48 83 c0 04          	add    $0x4,%rax
ffffffff80000b6a:	48 39 c2             	cmp    %rax,%rdx
ffffffff80000b6d:	75 f1                	jne    ffffffff80000b60 <console_init+0xe0>
    kbd_set_target(console_input);
ffffffff80000b6f:	48 c7 c7 00 07 00 80 	mov    $0xffffffff80000700,%rdi
ffffffff80000b76:	e9 75 01 00 00       	jmpq   ffffffff80000cf0 <kbd_set_target>
ffffffff80000b7b:	0f 1f 44 00 00       	nopl   0x0(%rax,%rax,1)

ffffffff80000b80 <console_exec>:
    for(int i = console_info.start_pos + (fb_info.width * 2); i < (fb_info.height * fb_info.width); i++)
ffffffff80000b80:	0f b7 05 a3 a3 00 00 	movzwl 0xa3a3(%rip),%eax        # ffffffff8000af2a <fb_info+0xa>
ffffffff80000b87:	8b 15 13 92 00 00    	mov    0x9213(%rip),%edx        # ffffffff80009da0 <console_info>
ffffffff80000b8d:	8d 0c 42             	lea    (%rdx,%rax,2),%ecx
ffffffff80000b90:	0f b7 15 91 a3 00 00 	movzwl 0xa391(%rip),%edx        # ffffffff8000af28 <fb_info+0x8>
ffffffff80000b97:	0f af d0             	imul   %eax,%edx
ffffffff80000b9a:	39 d1                	cmp    %edx,%ecx
ffffffff80000b9c:	7d 2c                	jge    ffffffff80000bca <console_exec+0x4a>
ffffffff80000b9e:	48 63 f9             	movslq %ecx,%rdi
        *((uint32_t*)fb_info.base + i) = console_info.background_color;
ffffffff80000ba1:	48 8b 35 78 a3 00 00 	mov    0xa378(%rip),%rsi        # ffffffff8000af20 <fb_info>
ffffffff80000ba8:	29 ca                	sub    %ecx,%edx
ffffffff80000baa:	48 01 fa             	add    %rdi,%rdx
ffffffff80000bad:	48 8d 04 be          	lea    (%rsi,%rdi,4),%rax
ffffffff80000bb1:	48 8d 0c 96          	lea    (%rsi,%rdx,4),%rcx
ffffffff80000bb5:	0f 1f 00             	nopl   (%rax)
ffffffff80000bb8:	8b 15 ee 91 00 00    	mov    0x91ee(%rip),%edx        # ffffffff80009dac <console_info+0xc>
    for(int i = console_info.start_pos + (fb_info.width * 2); i < (fb_info.height * fb_info.width); i++)
ffffffff80000bbe:	48 83 c0 04          	add    $0x4,%rax
        *((uint32_t*)fb_info.base + i) = console_info.background_color;
ffffffff80000bc2:	89 50 fc             	mov    %edx,-0x4(%rax)
    for(int i = console_info.start_pos + (fb_info.width * 2); i < (fb_info.height * fb_info.width); i++)
ffffffff80000bc5:	48 39 c8             	cmp    %rcx,%rax
ffffffff80000bc8:	75 ee                	jne    ffffffff80000bb8 <console_exec+0x38>
}
ffffffff80000bca:	c3                   	retq   
ffffffff80000bcb:	0f 1f 44 00 00       	nopl   0x0(%rax,%rax,1)

ffffffff80000bd0 <cpu_init>:
#include "cpu.h"

void cpu_init()
{
ffffffff80000bd0:	55                   	push   %rbp
    uint64_t a,b,c,d;
    __cpuid(0,a,b,c,d);
ffffffff80000bd1:	31 c0                	xor    %eax,%eax
{
ffffffff80000bd3:	48 89 e5             	mov    %rsp,%rbp
ffffffff80000bd6:	53                   	push   %rbx
    __cpuid(0,a,b,c,d);
ffffffff80000bd7:	0f a2                	cpuid  
ffffffff80000bd9:	48 8b 5d f8          	mov    -0x8(%rbp),%rbx
ffffffff80000bdd:	c9                   	leaveq 
ffffffff80000bde:	c3                   	retq   
ffffffff80000bdf:	90                   	nop

ffffffff80000be0 <fb_init>:

struct fb_info fb_info;

void fb_init()
{
    if(boot_info.type == STIVALE2)
ffffffff80000be0:	8b 05 3a 81 00 00    	mov    0x813a(%rip),%eax        # ffffffff80008d20 <boot_info>
ffffffff80000be6:	85 c0                	test   %eax,%eax
ffffffff80000be8:	75 56                	jne    ffffffff80000c40 <fb_init+0x60>
    {
        fb_info.base = boot_info.tag_framebuffer->framebuffer_addr;
ffffffff80000bea:	48 8b 0d 4f 81 00 00 	mov    0x814f(%rip),%rcx        # ffffffff80008d40 <boot_info+0x20>
ffffffff80000bf1:	48 8b 41 10          	mov    0x10(%rcx),%rax
        fb_info.height = boot_info.tag_framebuffer->framebuffer_height;
        fb_info.width = boot_info.tag_framebuffer->framebuffer_width;
ffffffff80000bf5:	44 0f b7 41 18       	movzwl 0x18(%rcx),%r8d
        fb_info.height = boot_info.tag_framebuffer->framebuffer_height;
ffffffff80000bfa:	0f b7 79 1c          	movzwl 0x1c(%rcx),%edi
        fb_info.base = boot_info.tag_framebuffer->framebuffer_addr;
ffffffff80000bfe:	48 89 05 1b a3 00 00 	mov    %rax,0xa31b(%rip)        # ffffffff8000af20 <fb_info>
        fb_info.height = boot_info.tag_framebuffer->framebuffer_height;
ffffffff80000c05:	0f b7 41 1a          	movzwl 0x1a(%rcx),%eax
        fb_info.width = boot_info.tag_framebuffer->framebuffer_width;
ffffffff80000c09:	4c 89 c6             	mov    %r8,%rsi
        fb_info.height = boot_info.tag_framebuffer->framebuffer_height;
ffffffff80000c0c:	49 c1 e0 10          	shl    $0x10,%r8
ffffffff80000c10:	0f b7 49 1e          	movzwl 0x1e(%rcx),%ecx
ffffffff80000c14:	48 c1 e7 20          	shl    $0x20,%rdi
ffffffff80000c18:	48 89 c2             	mov    %rax,%rdx
ffffffff80000c1b:	4c 09 c0             	or     %r8,%rax
        fb_info.pitch = boot_info.tag_framebuffer->framebuffer_pitch;
        fb_info.bpp = boot_info.tag_framebuffer->framebuffer_bpp;
        fb_info.max_pixels = fb_info.height * fb_info.width;
ffffffff80000c1e:	0f af d6             	imul   %esi,%edx
        fb_info.height = boot_info.tag_framebuffer->framebuffer_height;
ffffffff80000c21:	48 c1 e1 30          	shl    $0x30,%rcx
ffffffff80000c25:	48 09 f8             	or     %rdi,%rax
ffffffff80000c28:	48 09 c8             	or     %rcx,%rax
ffffffff80000c2b:	48 89 05 f6 a2 00 00 	mov    %rax,0xa2f6(%rip)        # ffffffff8000af28 <fb_info+0x8>
        fb_info.max_pixels = fb_info.height * fb_info.width;
ffffffff80000c32:	89 15 f8 a2 00 00    	mov    %edx,0xa2f8(%rip)        # ffffffff8000af30 <fb_info+0x10>
ffffffff80000c38:	c3                   	retq   
ffffffff80000c39:	0f 1f 80 00 00 00 00 	nopl   0x0(%rax)
    }
    else if(boot_info.type == LIMINE)
ffffffff80000c40:	83 f8 01             	cmp    $0x1,%eax
ffffffff80000c43:	74 06                	je     ffffffff80000c4b <fb_init+0x6b>
ffffffff80000c45:	0f 1f 00             	nopl   (%rax)
    }
    else
    {
        for(;;)
        {
            asm("hlt");
ffffffff80000c48:	f4                   	hlt    
        for(;;)
ffffffff80000c49:	eb fd                	jmp    ffffffff80000c48 <fb_init+0x68>
    //printf("FB Base: %p", fb_info.base);
    //printf("FB Height: %d  FB Width: %d\n", fb_info.height, fb_info.width);
    //printf("FB BPP: %d   FB Pitch: %d\n", fb_info.bpp, fb_info.pitch);

    //fb_putpixel(100,100,FB_COLOR_WHITE);
}
ffffffff80000c4b:	c3                   	retq   
ffffffff80000c4c:	0f 1f 40 00          	nopl   0x0(%rax)

ffffffff80000c50 <fb_putpixel>:

void fb_putpixel(uint32_t x, uint32_t y, enum fb_color col)
{
    uint64_t index = y * (fb_info.pitch / (fb_info.bpp / 8)) + x;
ffffffff80000c50:	0f b7 0d d7 a2 00 00 	movzwl 0xa2d7(%rip),%ecx        # ffffffff8000af2e <fb_info+0xe>
ffffffff80000c57:	0f b7 05 ce a2 00 00 	movzwl 0xa2ce(%rip),%eax        # ffffffff8000af2c <fb_info+0xc>
{
ffffffff80000c5e:	41 89 f0             	mov    %esi,%r8d
ffffffff80000c61:	89 d6                	mov    %edx,%esi
    uint64_t index = y * (fb_info.pitch / (fb_info.bpp / 8)) + x;
ffffffff80000c63:	31 d2                	xor    %edx,%edx
ffffffff80000c65:	66 c1 e9 03          	shr    $0x3,%cx
ffffffff80000c69:	66 f7 f1             	div    %cx
ffffffff80000c6c:	0f b7 c0             	movzwl %ax,%eax
ffffffff80000c6f:	41 0f af c0          	imul   %r8d,%eax
ffffffff80000c73:	8d 14 38             	lea    (%rax,%rdi,1),%edx
    //if(index > fb_info.max_pixels) return;
    *((uint32_t*)fb_info.base + index) = col;
ffffffff80000c76:	48 8b 05 a3 a2 00 00 	mov    0xa2a3(%rip),%rax        # ffffffff8000af20 <fb_info>
ffffffff80000c7d:	89 34 90             	mov    %esi,(%rax,%rdx,4)
}
ffffffff80000c80:	c3                   	retq   
ffffffff80000c81:	66 66 2e 0f 1f 84 00 	data16 nopw %cs:0x0(%rax,%rax,1)
ffffffff80000c88:	00 00 00 00 
ffffffff80000c8c:	0f 1f 40 00          	nopl   0x0(%rax)

ffffffff80000c90 <fb_clearscreen>:

void fb_clearscreen(enum fb_color col)
{
    for (uint64_t i = 0; i < (fb_info.height*fb_info.width); i++)
ffffffff80000c90:	0f b7 05 91 a2 00 00 	movzwl 0xa291(%rip),%eax        # ffffffff8000af28 <fb_info+0x8>
ffffffff80000c97:	0f b7 15 8c a2 00 00 	movzwl 0xa28c(%rip),%edx        # ffffffff8000af2a <fb_info+0xa>
ffffffff80000c9e:	0f af c2             	imul   %edx,%eax
ffffffff80000ca1:	48 63 c8             	movslq %eax,%rcx
ffffffff80000ca4:	85 c0                	test   %eax,%eax
ffffffff80000ca6:	74 1f                	je     ffffffff80000cc7 <fb_clearscreen+0x37>
    {
        *((uint32_t*)fb_info.base + i) = col;
ffffffff80000ca8:	48 8b 15 71 a2 00 00 	mov    0xa271(%rip),%rdx        # ffffffff8000af20 <fb_info>
    for (uint64_t i = 0; i < (fb_info.height*fb_info.width); i++)
ffffffff80000caf:	31 c0                	xor    %eax,%eax
ffffffff80000cb1:	0f 1f 80 00 00 00 00 	nopl   0x0(%rax)
ffffffff80000cb8:	48 83 c0 01          	add    $0x1,%rax
        *((uint32_t*)fb_info.base + i) = col;
ffffffff80000cbc:	89 3a                	mov    %edi,(%rdx)
    for (uint64_t i = 0; i < (fb_info.height*fb_info.width); i++)
ffffffff80000cbe:	48 83 c2 04          	add    $0x4,%rdx
ffffffff80000cc2:	48 39 c8             	cmp    %rcx,%rax
ffffffff80000cc5:	75 f1                	jne    ffffffff80000cb8 <fb_clearscreen+0x28>
    }
}
ffffffff80000cc7:	c3                   	retq   
ffffffff80000cc8:	0f 1f 84 00 00 00 00 	nopl   0x0(%rax,%rax,1)
ffffffff80000ccf:	00 

ffffffff80000cd0 <fb_drawline>:

void fb_drawline(uint32_t x1, uint32_t y1, uint32_t x2, uint32_t y2, enum fb_color col)
{

ffffffff80000cd0:	c3                   	retq   
ffffffff80000cd1:	66 2e 0f 1f 84 00 00 	nopw   %cs:0x0(%rax,%rax,1)
ffffffff80000cd8:	00 00 00 
ffffffff80000cdb:	0f 1f 44 00 00       	nopl   0x0(%rax,%rax,1)

ffffffff80000ce0 <kbd_init>:


void kbd_init()
{

}
ffffffff80000ce0:	c3                   	retq   
ffffffff80000ce1:	66 66 2e 0f 1f 84 00 	data16 nopw %cs:0x0(%rax,%rax,1)
ffffffff80000ce8:	00 00 00 00 
ffffffff80000cec:	0f 1f 40 00          	nopl   0x0(%rax)

ffffffff80000cf0 <kbd_set_target>:

void kbd_set_target(void* handler)
{
    kbd_handler = handler;
ffffffff80000cf0:	48 89 3d 71 a3 00 00 	mov    %rdi,0xa371(%rip)        # ffffffff8000b068 <kbd_handler>
    kbd_active = 1;
ffffffff80000cf7:	c6 05 72 a3 00 00 01 	movb   $0x1,0xa372(%rip)        # ffffffff8000b070 <kbd_active>
}
ffffffff80000cfe:	c3                   	retq   
ffffffff80000cff:	90                   	nop

ffffffff80000d00 <kbd_translate>:

uint8_t kbd_translate(uint8_t scancode, uint8_t uppercase)
{
    if(scancode > 58) return 0;
ffffffff80000d00:	31 c0                	xor    %eax,%eax
ffffffff80000d02:	40 80 ff 3a          	cmp    $0x3a,%dil
ffffffff80000d06:	77 14                	ja     ffffffff80000d1c <kbd_translate+0x1c>

    if(uppercase) return kbd_table[scancode] - 32;
ffffffff80000d08:	40 0f b6 ff          	movzbl %dil,%edi
ffffffff80000d0c:	40 84 f6             	test   %sil,%sil
ffffffff80000d0f:	0f b6 87 20 53 00 80 	movzbl -0x7ffface0(%rdi),%eax
ffffffff80000d16:	8d 50 e0             	lea    -0x20(%rax),%edx
ffffffff80000d19:	0f 45 c2             	cmovne %edx,%eax

    return kbd_table[scancode];
}
ffffffff80000d1c:	c3                   	retq   
ffffffff80000d1d:	0f 1f 00             	nopl   (%rax)

ffffffff80000d20 <kbd_handle>:
void kbd_handle()
{
    uint8_t data;
    KEY_INFO_t key_info;

    if(!kbd_active) return;
ffffffff80000d20:	80 3d 49 a3 00 00 00 	cmpb   $0x0,0xa349(%rip)        # ffffffff8000b070 <kbd_active>
ffffffff80000d27:	75 07                	jne    ffffffff80000d30 <kbd_handle+0x10>
ffffffff80000d29:	c3                   	retq   
ffffffff80000d2a:	66 0f 1f 44 00 00    	nopw   0x0(%rax,%rax,1)
{
ffffffff80000d30:	55                   	push   %rbp

    data = inb(0x60);
ffffffff80000d31:	bf 60 00 00 00       	mov    $0x60,%edi
{
ffffffff80000d36:	48 89 e5             	mov    %rsp,%rbp
    data = inb(0x60);
ffffffff80000d39:	e8 42 0b 00 00       	callq  ffffffff80001880 <inb>

    uint8_t buffer[20];

    switch(data)
ffffffff80000d3e:	3c 36                	cmp    $0x36,%al
ffffffff80000d40:	74 4e                	je     ffffffff80000d90 <kbd_handle+0x70>
ffffffff80000d42:	77 14                	ja     ffffffff80000d58 <kbd_handle+0x38>
ffffffff80000d44:	3c 01                	cmp    $0x1,%al
ffffffff80000d46:	74 28                	je     ffffffff80000d70 <kbd_handle+0x50>
ffffffff80000d48:	3c 2a                	cmp    $0x2a,%al
ffffffff80000d4a:	75 53                	jne    ffffffff80000d9f <kbd_handle+0x7f>
    {
        case KBD_LEFT_SHIFT:
            lshift_status = 1;
ffffffff80000d4c:	c6 05 0e a3 00 00 01 	movb   $0x1,0xa30e(%rip)        # ffffffff8000b061 <lshift_status>
    key_info.ascii = kbd_translate(data, lshift_status | rshift_status);
    key_info.scancode = data;

    kbd_handler(key_info);

ffffffff80000d53:	5d                   	pop    %rbp
ffffffff80000d54:	c3                   	retq   
ffffffff80000d55:	0f 1f 00             	nopl   (%rax)
    switch(data)
ffffffff80000d58:	3c aa                	cmp    $0xaa,%al
ffffffff80000d5a:	74 74                	je     ffffffff80000dd0 <kbd_handle+0xb0>
ffffffff80000d5c:	3c b6                	cmp    $0xb6,%al
ffffffff80000d5e:	75 39                	jne    ffffffff80000d99 <kbd_handle+0x79>
            rshift_status = 0;
ffffffff80000d60:	c6 05 f9 a2 00 00 00 	movb   $0x0,0xa2f9(%rip)        # ffffffff8000b060 <rshift_status>
ffffffff80000d67:	5d                   	pop    %rbp
ffffffff80000d68:	c3                   	retq   
ffffffff80000d69:	0f 1f 80 00 00 00 00 	nopl   0x0(%rax)
            printf("%d\n", pit_ticks);
ffffffff80000d70:	48 8b 35 09 e5 00 00 	mov    0xe509(%rip),%rsi        # ffffffff8000f280 <pit_ticks>
ffffffff80000d77:	48 c7 c7 a0 57 00 80 	mov    $0xffffffff800057a0,%rdi
ffffffff80000d7e:	31 c0                	xor    %eax,%eax
ffffffff80000d80:	5d                   	pop    %rbp
            printf("%d\n", pit_ticks);
ffffffff80000d81:	e9 2a 32 00 00       	jmpq   ffffffff80003fb0 <printf_>
ffffffff80000d86:	66 2e 0f 1f 84 00 00 	nopw   %cs:0x0(%rax,%rax,1)
ffffffff80000d8d:	00 00 00 
            rshift_status = 1;
ffffffff80000d90:	c6 05 c9 a2 00 00 01 	movb   $0x1,0xa2c9(%rip)        # ffffffff8000b060 <rshift_status>
ffffffff80000d97:	5d                   	pop    %rbp
ffffffff80000d98:	c3                   	retq   
    if(scancode > 58) return 0;
ffffffff80000d99:	31 d2                	xor    %edx,%edx
ffffffff80000d9b:	3c 3a                	cmp    $0x3a,%al
ffffffff80000d9d:	77 21                	ja     ffffffff80000dc0 <kbd_handle+0xa0>
    if(uppercase) return kbd_table[scancode] - 32;
ffffffff80000d9f:	0f b6 d0             	movzbl %al,%edx
    key_info.ascii = kbd_translate(data, lshift_status | rshift_status);
ffffffff80000da2:	0f b6 0d b8 a2 00 00 	movzbl 0xa2b8(%rip),%ecx        # ffffffff8000b061 <lshift_status>
ffffffff80000da9:	0f b6 35 b0 a2 00 00 	movzbl 0xa2b0(%rip),%esi        # ffffffff8000b060 <rshift_status>
    if(uppercase) return kbd_table[scancode] - 32;
ffffffff80000db0:	0f b6 92 20 53 00 80 	movzbl -0x7ffface0(%rdx),%edx
ffffffff80000db7:	40 08 f1             	or     %sil,%cl
ffffffff80000dba:	8d 7a e0             	lea    -0x20(%rdx),%edi
ffffffff80000dbd:	0f 45 d7             	cmovne %edi,%edx
    key_info.ascii = kbd_translate(data, lshift_status | rshift_status);
ffffffff80000dc0:	31 c9                	xor    %ecx,%ecx
ffffffff80000dc2:	5d                   	pop    %rbp
    key_info.ascii = kbd_translate(data, lshift_status | rshift_status);
ffffffff80000dc3:	88 d5                	mov    %dl,%ch
    key_info.scancode = data;
ffffffff80000dc5:	88 c1                	mov    %al,%cl
    kbd_handler(key_info);
ffffffff80000dc7:	89 cf                	mov    %ecx,%edi
ffffffff80000dc9:	ff 25 99 a2 00 00    	jmpq   *0xa299(%rip)        # ffffffff8000b068 <kbd_handler>
ffffffff80000dcf:	90                   	nop
            lshift_status = 0;
ffffffff80000dd0:	c6 05 8a a2 00 00 00 	movb   $0x0,0xa28a(%rip)        # ffffffff8000b061 <lshift_status>
ffffffff80000dd7:	5d                   	pop    %rbp
ffffffff80000dd8:	c3                   	retq   
ffffffff80000dd9:	0f 1f 80 00 00 00 00 	nopl   0x0(%rax)

ffffffff80000de0 <pic_EOI>:

uint64_t ticks;

void pic_EOI(uint8_t IRQ)
{
    if(IRQ >= 8)
ffffffff80000de0:	40 80 ff 07          	cmp    $0x7,%dil
ffffffff80000de4:	77 12                	ja     ffffffff80000df8 <pic_EOI+0x18>
    {
        outb(PIC2_CMD, PIC_EOI);
    }
    
    outb(PIC1_CMD, PIC_EOI);
ffffffff80000de6:	be 20 00 00 00       	mov    $0x20,%esi
ffffffff80000deb:	bf 20 00 00 00       	mov    $0x20,%edi
ffffffff80000df0:	e9 7b 0a 00 00       	jmpq   ffffffff80001870 <outb>
ffffffff80000df5:	0f 1f 00             	nopl   (%rax)
{
ffffffff80000df8:	55                   	push   %rbp
        outb(PIC2_CMD, PIC_EOI);
ffffffff80000df9:	be 20 00 00 00       	mov    $0x20,%esi
ffffffff80000dfe:	bf a0 00 00 00       	mov    $0xa0,%edi
{
ffffffff80000e03:	48 89 e5             	mov    %rsp,%rbp
        outb(PIC2_CMD, PIC_EOI);
ffffffff80000e06:	e8 65 0a 00 00       	callq  ffffffff80001870 <outb>
    outb(PIC1_CMD, PIC_EOI);
ffffffff80000e0b:	be 20 00 00 00       	mov    $0x20,%esi
ffffffff80000e10:	bf 20 00 00 00       	mov    $0x20,%edi
}
ffffffff80000e15:	5d                   	pop    %rbp
    outb(PIC1_CMD, PIC_EOI);
ffffffff80000e16:	e9 55 0a 00 00       	jmpq   ffffffff80001870 <outb>
ffffffff80000e1b:	0f 1f 44 00 00       	nopl   0x0(%rax,%rax,1)

ffffffff80000e20 <pic_set_mask>:

void pic_set_mask(uint8_t IRQ)
{
ffffffff80000e20:	55                   	push   %rbp
ffffffff80000e21:	48 89 e5             	mov    %rsp,%rbp
ffffffff80000e24:	41 54                	push   %r12
ffffffff80000e26:	53                   	push   %rbx
    uint16_t port;
    uint8_t value;

    if(IRQ < 8)
ffffffff80000e27:	40 80 ff 07          	cmp    $0x7,%dil
ffffffff80000e2b:	76 33                	jbe    ffffffff80000e60 <pic_set_mask+0x40>
        port = PIC1_DATA;
    }
    else
    {
        port = PIC2_DATA;
        IRQ -= 8;
ffffffff80000e2d:	44 8d 67 f8          	lea    -0x8(%rdi),%r12d
ffffffff80000e31:	bb a1 00 00 00       	mov    $0xa1,%ebx
    }
    value = inb(port) | (1 << IRQ);
ffffffff80000e36:	89 df                	mov    %ebx,%edi
ffffffff80000e38:	e8 43 0a 00 00       	callq  ffffffff80001880 <inb>
ffffffff80000e3d:	44 89 e1             	mov    %r12d,%ecx
ffffffff80000e40:	ba 01 00 00 00       	mov    $0x1,%edx
    outb(port, value);
ffffffff80000e45:	89 df                	mov    %ebx,%edi
    value = inb(port) | (1 << IRQ);
ffffffff80000e47:	d3 e2                	shl    %cl,%edx
}
ffffffff80000e49:	5b                   	pop    %rbx
ffffffff80000e4a:	41 5c                	pop    %r12
    value = inb(port) | (1 << IRQ);
ffffffff80000e4c:	09 d0                	or     %edx,%eax
}
ffffffff80000e4e:	5d                   	pop    %rbp
    outb(port, value);
ffffffff80000e4f:	0f b6 f0             	movzbl %al,%esi
ffffffff80000e52:	e9 19 0a 00 00       	jmpq   ffffffff80001870 <outb>
ffffffff80000e57:	66 0f 1f 84 00 00 00 	nopw   0x0(%rax,%rax,1)
ffffffff80000e5e:	00 00 
ffffffff80000e60:	41 89 fc             	mov    %edi,%r12d
ffffffff80000e63:	bb 21 00 00 00       	mov    $0x21,%ebx
ffffffff80000e68:	eb cc                	jmp    ffffffff80000e36 <pic_set_mask+0x16>
ffffffff80000e6a:	66 0f 1f 44 00 00    	nopw   0x0(%rax,%rax,1)

ffffffff80000e70 <pic_clear_mask>:

void pic_clear_mask(uint8_t IRQ)
{
ffffffff80000e70:	55                   	push   %rbp
ffffffff80000e71:	48 89 e5             	mov    %rsp,%rbp
ffffffff80000e74:	41 54                	push   %r12
ffffffff80000e76:	53                   	push   %rbx
    uint16_t port;
    uint8_t value;

    if(IRQ < 8)
ffffffff80000e77:	40 80 ff 07          	cmp    $0x7,%dil
ffffffff80000e7b:	76 23                	jbe    ffffffff80000ea0 <pic_clear_mask+0x30>
        port = PIC1_DATA;
    }
    else
    {
        port = PIC2_DATA;
        IRQ -= 8;
ffffffff80000e7d:	44 8d 67 f8          	lea    -0x8(%rdi),%r12d
ffffffff80000e81:	bb a1 00 00 00       	mov    $0xa1,%ebx
    }
    value = inb(port) & ~(1 << IRQ);
ffffffff80000e86:	89 df                	mov    %ebx,%edi
ffffffff80000e88:	e8 f3 09 00 00       	callq  ffffffff80001880 <inb>
    outb(port, value);
ffffffff80000e8d:	89 df                	mov    %ebx,%edi
}
ffffffff80000e8f:	5b                   	pop    %rbx
    value = inb(port) & ~(1 << IRQ);
ffffffff80000e90:	44 0f b3 e0          	btr    %r12d,%eax
}
ffffffff80000e94:	41 5c                	pop    %r12
ffffffff80000e96:	5d                   	pop    %rbp
    outb(port, value);
ffffffff80000e97:	0f b6 f0             	movzbl %al,%esi
ffffffff80000e9a:	e9 d1 09 00 00       	jmpq   ffffffff80001870 <outb>
ffffffff80000e9f:	90                   	nop
ffffffff80000ea0:	41 89 fc             	mov    %edi,%r12d
ffffffff80000ea3:	bb 21 00 00 00       	mov    $0x21,%ebx
ffffffff80000ea8:	eb dc                	jmp    ffffffff80000e86 <pic_clear_mask+0x16>
ffffffff80000eaa:	66 0f 1f 44 00 00    	nopw   0x0(%rax,%rax,1)

ffffffff80000eb0 <pic_disable>:

void pic_disable()
{
ffffffff80000eb0:	55                   	push   %rbp
    outb(PIC2_DATA, 0xff);
ffffffff80000eb1:	be ff 00 00 00       	mov    $0xff,%esi
ffffffff80000eb6:	bf a1 00 00 00       	mov    $0xa1,%edi
{
ffffffff80000ebb:	48 89 e5             	mov    %rsp,%rbp
    outb(PIC2_DATA, 0xff);
ffffffff80000ebe:	e8 ad 09 00 00       	callq  ffffffff80001870 <outb>
    outb(PIC1_DATA, 0xff);
ffffffff80000ec3:	be ff 00 00 00       	mov    $0xff,%esi
ffffffff80000ec8:	bf 21 00 00 00       	mov    $0x21,%edi
}
ffffffff80000ecd:	5d                   	pop    %rbp
    outb(PIC1_DATA, 0xff);
ffffffff80000ece:	e9 9d 09 00 00       	jmpq   ffffffff80001870 <outb>
ffffffff80000ed3:	66 66 2e 0f 1f 84 00 	data16 nopw %cs:0x0(%rax,%rax,1)
ffffffff80000eda:	00 00 00 00 
ffffffff80000ede:	66 90                	xchg   %ax,%ax

ffffffff80000ee0 <pic_remap>:

void pic_remap()
{
ffffffff80000ee0:	55                   	push   %rbp
    uint8_t mask1 = inb(PIC1_DATA);
ffffffff80000ee1:	bf 21 00 00 00       	mov    $0x21,%edi
{
ffffffff80000ee6:	48 89 e5             	mov    %rsp,%rbp
ffffffff80000ee9:	41 54                	push   %r12
ffffffff80000eeb:	53                   	push   %rbx
    uint8_t mask1 = inb(PIC1_DATA);
ffffffff80000eec:	e8 8f 09 00 00       	callq  ffffffff80001880 <inb>
    uint8_t mask2 = inb(PIC2_DATA);
ffffffff80000ef1:	bf a1 00 00 00       	mov    $0xa1,%edi
    uint8_t mask1 = inb(PIC1_DATA);
ffffffff80000ef6:	41 89 c4             	mov    %eax,%r12d
    uint8_t mask2 = inb(PIC2_DATA);
ffffffff80000ef9:	e8 82 09 00 00       	callq  ffffffff80001880 <inb>

    outb(PIC1_CMD, 0x11);
ffffffff80000efe:	be 11 00 00 00       	mov    $0x11,%esi
ffffffff80000f03:	bf 20 00 00 00       	mov    $0x20,%edi
    uint8_t mask2 = inb(PIC2_DATA);
ffffffff80000f08:	89 c3                	mov    %eax,%ebx
    outb(PIC1_CMD, 0x11);
ffffffff80000f0a:	e8 61 09 00 00       	callq  ffffffff80001870 <outb>
    io_wait();
ffffffff80000f0f:	31 c0                	xor    %eax,%eax
ffffffff80000f11:	e8 7a 09 00 00       	callq  ffffffff80001890 <io_wait>
    outb(PIC2_CMD, 0x11);
ffffffff80000f16:	be 11 00 00 00       	mov    $0x11,%esi
ffffffff80000f1b:	bf a0 00 00 00       	mov    $0xa0,%edi
ffffffff80000f20:	e8 4b 09 00 00       	callq  ffffffff80001870 <outb>
    io_wait();
ffffffff80000f25:	31 c0                	xor    %eax,%eax
ffffffff80000f27:	e8 64 09 00 00       	callq  ffffffff80001890 <io_wait>

    outb(PIC1_DATA, 0x20);
ffffffff80000f2c:	be 20 00 00 00       	mov    $0x20,%esi
ffffffff80000f31:	bf 21 00 00 00       	mov    $0x21,%edi
ffffffff80000f36:	e8 35 09 00 00       	callq  ffffffff80001870 <outb>
    io_wait();
ffffffff80000f3b:	31 c0                	xor    %eax,%eax
ffffffff80000f3d:	e8 4e 09 00 00       	callq  ffffffff80001890 <io_wait>
    outb(PIC2_DATA, 0x20);
ffffffff80000f42:	be 20 00 00 00       	mov    $0x20,%esi
ffffffff80000f47:	bf a1 00 00 00       	mov    $0xa1,%edi
ffffffff80000f4c:	e8 1f 09 00 00       	callq  ffffffff80001870 <outb>
    io_wait();
ffffffff80000f51:	31 c0                	xor    %eax,%eax
ffffffff80000f53:	e8 38 09 00 00       	callq  ffffffff80001890 <io_wait>

    outb(PIC1_DATA, 0x04);
ffffffff80000f58:	be 04 00 00 00       	mov    $0x4,%esi
ffffffff80000f5d:	bf 21 00 00 00       	mov    $0x21,%edi
ffffffff80000f62:	e8 09 09 00 00       	callq  ffffffff80001870 <outb>
    io_wait();
ffffffff80000f67:	31 c0                	xor    %eax,%eax
ffffffff80000f69:	e8 22 09 00 00       	callq  ffffffff80001890 <io_wait>
    outb(PIC2_DATA, 0x02);
ffffffff80000f6e:	be 02 00 00 00       	mov    $0x2,%esi
ffffffff80000f73:	bf a1 00 00 00       	mov    $0xa1,%edi
ffffffff80000f78:	e8 f3 08 00 00       	callq  ffffffff80001870 <outb>
    io_wait();
ffffffff80000f7d:	31 c0                	xor    %eax,%eax
ffffffff80000f7f:	e8 0c 09 00 00       	callq  ffffffff80001890 <io_wait>

    outb(PIC1_DATA, 0x01);
ffffffff80000f84:	be 01 00 00 00       	mov    $0x1,%esi
ffffffff80000f89:	bf 21 00 00 00       	mov    $0x21,%edi
ffffffff80000f8e:	e8 dd 08 00 00       	callq  ffffffff80001870 <outb>
    io_wait();
ffffffff80000f93:	31 c0                	xor    %eax,%eax
ffffffff80000f95:	e8 f6 08 00 00       	callq  ffffffff80001890 <io_wait>
    outb(PIC2_DATA, 0x01);
ffffffff80000f9a:	be 01 00 00 00       	mov    $0x1,%esi
ffffffff80000f9f:	bf a1 00 00 00       	mov    $0xa1,%edi
ffffffff80000fa4:	e8 c7 08 00 00       	callq  ffffffff80001870 <outb>
    io_wait();
ffffffff80000fa9:	31 c0                	xor    %eax,%eax
ffffffff80000fab:	e8 e0 08 00 00       	callq  ffffffff80001890 <io_wait>

    outb(PIC1_DATA, mask1);
ffffffff80000fb0:	41 0f b6 f4          	movzbl %r12b,%esi
ffffffff80000fb4:	bf 21 00 00 00       	mov    $0x21,%edi
ffffffff80000fb9:	e8 b2 08 00 00       	callq  ffffffff80001870 <outb>
    io_wait();
ffffffff80000fbe:	31 c0                	xor    %eax,%eax
ffffffff80000fc0:	e8 cb 08 00 00       	callq  ffffffff80001890 <io_wait>
    outb(PIC2_DATA, mask2);
ffffffff80000fc5:	0f b6 f3             	movzbl %bl,%esi
ffffffff80000fc8:	bf a1 00 00 00       	mov    $0xa1,%edi
ffffffff80000fcd:	e8 9e 08 00 00       	callq  ffffffff80001870 <outb>
    io_wait();
}
ffffffff80000fd2:	5b                   	pop    %rbx
    io_wait();
ffffffff80000fd3:	31 c0                	xor    %eax,%eax
}
ffffffff80000fd5:	41 5c                	pop    %r12
ffffffff80000fd7:	5d                   	pop    %rbp
    io_wait();
ffffffff80000fd8:	e9 b3 08 00 00       	jmpq   ffffffff80001890 <io_wait>
ffffffff80000fdd:	0f 1f 00             	nopl   (%rax)

ffffffff80000fe0 <pit_init>:



void pit_init(uint64_t freq)
{
ffffffff80000fe0:	55                   	push   %rbp
    uint64_t working_freq = freq;
    if(freq < 10000)
        working_freq = 10000;
    
    if(freq > 1193181)
ffffffff80000fe1:	b8 dd 34 12 00       	mov    $0x1234dd,%eax
        working_freq = 1193181;

    uint32_t divisor = 1193180 / working_freq;

    outb(0x43, 0x36);
ffffffff80000fe6:	be 36 00 00 00       	mov    $0x36,%esi
{
ffffffff80000feb:	48 89 e5             	mov    %rsp,%rbp
ffffffff80000fee:	53                   	push   %rbx
ffffffff80000fef:	48 83 ec 08          	sub    $0x8,%rsp
    if(freq > 1193181)
ffffffff80000ff3:	48 39 c7             	cmp    %rax,%rdi
ffffffff80000ff6:	48 0f 47 f8          	cmova  %rax,%rdi
    uint32_t divisor = 1193180 / working_freq;
ffffffff80000ffa:	b8 10 27 00 00       	mov    $0x2710,%eax
ffffffff80000fff:	48 39 c7             	cmp    %rax,%rdi
ffffffff80001002:	48 0f 42 f8          	cmovb  %rax,%rdi
ffffffff80001006:	b8 dc 34 12 00       	mov    $0x1234dc,%eax
ffffffff8000100b:	31 d2                	xor    %edx,%edx
ffffffff8000100d:	48 f7 f7             	div    %rdi
    outb(0x43, 0x36);
ffffffff80001010:	bf 43 00 00 00       	mov    $0x43,%edi
    uint32_t divisor = 1193180 / working_freq;
ffffffff80001015:	48 89 c3             	mov    %rax,%rbx
    outb(0x43, 0x36);
ffffffff80001018:	e8 53 08 00 00       	callq  ffffffff80001870 <outb>
    outb(0x40, divisor & 0xff);
ffffffff8000101d:	89 de                	mov    %ebx,%esi
ffffffff8000101f:	bf 40 00 00 00       	mov    $0x40,%edi
ffffffff80001024:	e8 47 08 00 00       	callq  ffffffff80001870 <outb>
    outb(0x40, divisor >> 8);
ffffffff80001029:	48 8b 5d f8          	mov    -0x8(%rbp),%rbx
    outb(0x40, divisor >> 8);
ffffffff8000102d:	31 f6                	xor    %esi,%esi
ffffffff8000102f:	bf 40 00 00 00       	mov    $0x40,%edi
ffffffff80001034:	c9                   	leaveq 
    outb(0x40, divisor >> 8);
ffffffff80001035:	e9 36 08 00 00       	jmpq   ffffffff80001870 <outb>
ffffffff8000103a:	66 0f 1f 44 00 00    	nopw   0x0(%rax,%rax,1)

ffffffff80001040 <serial_init>:
#include <io.h>

char serial_buffer[256];

uint64_t serial_init(uint16_t port)
{
ffffffff80001040:	55                   	push   %rbp
    outb(port + 1, 0x00);
ffffffff80001041:	31 f6                	xor    %esi,%esi
{
ffffffff80001043:	48 89 e5             	mov    %rsp,%rbp
ffffffff80001046:	41 56                	push   %r14
ffffffff80001048:	41 55                	push   %r13
    outb(port + 1, 0x00);
ffffffff8000104a:	44 8d 6f 01          	lea    0x1(%rdi),%r13d
{
ffffffff8000104e:	41 54                	push   %r12
    outb(port + 1, 0x00);
ffffffff80001050:	45 0f b7 ed          	movzwl %r13w,%r13d
{
ffffffff80001054:	53                   	push   %rbx
ffffffff80001055:	89 fb                	mov    %edi,%ebx
    outb(port + 1, 0x00);
ffffffff80001057:	44 89 ef             	mov    %r13d,%edi
    outb(port + 3, 0x80);
ffffffff8000105a:	44 8d 63 03          	lea    0x3(%rbx),%r12d
    outb(port + 0, 0x00);
ffffffff8000105e:	44 0f b7 f3          	movzwl %bx,%r14d
    outb(port + 3, 0x80);
ffffffff80001062:	45 0f b7 e4          	movzwl %r12w,%r12d
    outb(port + 1, 0x00);
ffffffff80001066:	e8 05 08 00 00       	callq  ffffffff80001870 <outb>
    outb(port + 3, 0x80);
ffffffff8000106b:	be 80 00 00 00       	mov    $0x80,%esi
ffffffff80001070:	44 89 e7             	mov    %r12d,%edi
ffffffff80001073:	e8 f8 07 00 00       	callq  ffffffff80001870 <outb>
    outb(port + 0, 0x00);
ffffffff80001078:	31 f6                	xor    %esi,%esi
ffffffff8000107a:	44 89 f7             	mov    %r14d,%edi
ffffffff8000107d:	e8 ee 07 00 00       	callq  ffffffff80001870 <outb>
    outb(port + 1, 0x00);
ffffffff80001082:	31 f6                	xor    %esi,%esi
ffffffff80001084:	44 89 ef             	mov    %r13d,%edi
ffffffff80001087:	e8 e4 07 00 00       	callq  ffffffff80001870 <outb>
    outb(port + 3, 0x03);
ffffffff8000108c:	be 03 00 00 00       	mov    $0x3,%esi
ffffffff80001091:	44 89 e7             	mov    %r12d,%edi
ffffffff80001094:	e8 d7 07 00 00       	callq  ffffffff80001870 <outb>
    outb(port + 2, 0xC7);
ffffffff80001099:	8d 7b 02             	lea    0x2(%rbx),%edi
    outb(port + 4, 0x0B);
ffffffff8000109c:	83 c3 04             	add    $0x4,%ebx
    outb(port + 2, 0xC7);
ffffffff8000109f:	be c7 00 00 00       	mov    $0xc7,%esi
ffffffff800010a4:	0f b7 ff             	movzwl %di,%edi
    outb(port + 4, 0x0B);
ffffffff800010a7:	0f b7 db             	movzwl %bx,%ebx
    outb(port + 2, 0xC7);
ffffffff800010aa:	e8 c1 07 00 00       	callq  ffffffff80001870 <outb>
    outb(port + 4, 0x0B);
ffffffff800010af:	be 0b 00 00 00       	mov    $0xb,%esi
ffffffff800010b4:	89 df                	mov    %ebx,%edi
ffffffff800010b6:	e8 b5 07 00 00       	callq  ffffffff80001870 <outb>

    if(inb(port + 0) != 0xAE)
ffffffff800010bb:	44 89 f7             	mov    %r14d,%edi
ffffffff800010be:	e8 bd 07 00 00       	callq  ffffffff80001880 <inb>
ffffffff800010c3:	89 c2                	mov    %eax,%edx
ffffffff800010c5:	b8 01 00 00 00       	mov    $0x1,%eax
ffffffff800010ca:	80 fa ae             	cmp    $0xae,%dl
ffffffff800010cd:	74 11                	je     ffffffff800010e0 <serial_init+0xa0>
        return 1;
    }

    outb(port + 4, 0x0F);
    return 0;
}
ffffffff800010cf:	5b                   	pop    %rbx
ffffffff800010d0:	41 5c                	pop    %r12
ffffffff800010d2:	41 5d                	pop    %r13
ffffffff800010d4:	41 5e                	pop    %r14
ffffffff800010d6:	5d                   	pop    %rbp
ffffffff800010d7:	c3                   	retq   
ffffffff800010d8:	0f 1f 84 00 00 00 00 	nopl   0x0(%rax,%rax,1)
ffffffff800010df:	00 
    outb(port + 4, 0x0F);
ffffffff800010e0:	89 df                	mov    %ebx,%edi
ffffffff800010e2:	be 0f 00 00 00       	mov    $0xf,%esi
ffffffff800010e7:	e8 84 07 00 00       	callq  ffffffff80001870 <outb>
}
ffffffff800010ec:	5b                   	pop    %rbx
    return 0;
ffffffff800010ed:	31 c0                	xor    %eax,%eax
}
ffffffff800010ef:	41 5c                	pop    %r12
ffffffff800010f1:	41 5d                	pop    %r13
ffffffff800010f3:	41 5e                	pop    %r14
ffffffff800010f5:	5d                   	pop    %rbp
ffffffff800010f6:	c3                   	retq   
ffffffff800010f7:	66 0f 1f 84 00 00 00 	nopw   0x0(%rax,%rax,1)
ffffffff800010fe:	00 00 

ffffffff80001100 <serial_received>:

uint64_t serial_received(uint16_t port)
{
ffffffff80001100:	55                   	push   %rbp
    return inb(port + 5) & 1;
ffffffff80001101:	83 c7 05             	add    $0x5,%edi
ffffffff80001104:	0f b7 ff             	movzwl %di,%edi
{
ffffffff80001107:	48 89 e5             	mov    %rsp,%rbp
    return inb(port + 5) & 1;
ffffffff8000110a:	e8 71 07 00 00       	callq  ffffffff80001880 <inb>
}
ffffffff8000110f:	5d                   	pop    %rbp
    return inb(port + 5) & 1;
ffffffff80001110:	83 e0 01             	and    $0x1,%eax
}
ffffffff80001113:	c3                   	retq   
ffffffff80001114:	66 66 2e 0f 1f 84 00 	data16 nopw %cs:0x0(%rax,%rax,1)
ffffffff8000111b:	00 00 00 00 
ffffffff8000111f:	90                   	nop

ffffffff80001120 <serial_read>:

uint8_t serial_read(uint16_t port)
{
ffffffff80001120:	55                   	push   %rbp
ffffffff80001121:	48 89 e5             	mov    %rsp,%rbp
ffffffff80001124:	41 54                	push   %r12
    while(serial_received(port) == 0);
ffffffff80001126:	44 0f b7 e7          	movzwl %di,%r12d
    return inb(port + 5) & 1;
ffffffff8000112a:	83 c7 05             	add    $0x5,%edi
{
ffffffff8000112d:	53                   	push   %rbx
    return inb(port + 5) & 1;
ffffffff8000112e:	0f b7 df             	movzwl %di,%ebx
ffffffff80001131:	0f 1f 80 00 00 00 00 	nopl   0x0(%rax)
ffffffff80001138:	89 df                	mov    %ebx,%edi
ffffffff8000113a:	e8 41 07 00 00       	callq  ffffffff80001880 <inb>
    while(serial_received(port) == 0);
ffffffff8000113f:	a8 01                	test   $0x1,%al
ffffffff80001141:	74 f5                	je     ffffffff80001138 <serial_read+0x18>

    return inb(port);
}
ffffffff80001143:	5b                   	pop    %rbx
    return inb(port);
ffffffff80001144:	44 89 e7             	mov    %r12d,%edi
}
ffffffff80001147:	41 5c                	pop    %r12
ffffffff80001149:	5d                   	pop    %rbp
    return inb(port);
ffffffff8000114a:	e9 31 07 00 00       	jmpq   ffffffff80001880 <inb>
ffffffff8000114f:	90                   	nop

ffffffff80001150 <serial_is_tx_empty>:

uint64_t serial_is_tx_empty(uint16_t port)
{
ffffffff80001150:	55                   	push   %rbp
    return inb(port + 5) & 0x20;
ffffffff80001151:	83 c7 05             	add    $0x5,%edi
ffffffff80001154:	0f b7 ff             	movzwl %di,%edi
{
ffffffff80001157:	48 89 e5             	mov    %rsp,%rbp
    return inb(port + 5) & 0x20;
ffffffff8000115a:	e8 21 07 00 00       	callq  ffffffff80001880 <inb>
}
ffffffff8000115f:	5d                   	pop    %rbp
    return inb(port + 5) & 0x20;
ffffffff80001160:	83 e0 20             	and    $0x20,%eax
}
ffffffff80001163:	c3                   	retq   
ffffffff80001164:	66 66 2e 0f 1f 84 00 	data16 nopw %cs:0x0(%rax,%rax,1)
ffffffff8000116b:	00 00 00 00 
ffffffff8000116f:	90                   	nop

ffffffff80001170 <serial_write>:

void serial_write(uint16_t port, uint8_t data)
{
ffffffff80001170:	55                   	push   %rbp
ffffffff80001171:	48 89 e5             	mov    %rsp,%rbp
ffffffff80001174:	41 55                	push   %r13
    while(serial_is_tx_empty(port) == 0);
ffffffff80001176:	44 0f b7 ef          	movzwl %di,%r13d
    return inb(port + 5) & 0x20;
ffffffff8000117a:	83 c7 05             	add    $0x5,%edi
{
ffffffff8000117d:	41 54                	push   %r12
ffffffff8000117f:	41 89 f4             	mov    %esi,%r12d
ffffffff80001182:	53                   	push   %rbx
    return inb(port + 5) & 0x20;
ffffffff80001183:	0f b7 df             	movzwl %di,%ebx
{
ffffffff80001186:	48 83 ec 08          	sub    $0x8,%rsp
ffffffff8000118a:	66 0f 1f 44 00 00    	nopw   0x0(%rax,%rax,1)
    return inb(port + 5) & 0x20;
ffffffff80001190:	89 df                	mov    %ebx,%edi
ffffffff80001192:	e8 e9 06 00 00       	callq  ffffffff80001880 <inb>
    while(serial_is_tx_empty(port) == 0);
ffffffff80001197:	a8 20                	test   $0x20,%al
ffffffff80001199:	74 f5                	je     ffffffff80001190 <serial_write+0x20>
    outb(port, data);
}
ffffffff8000119b:	48 83 c4 08          	add    $0x8,%rsp
    outb(port, data);
ffffffff8000119f:	41 0f b6 f4          	movzbl %r12b,%esi
ffffffff800011a3:	44 89 ef             	mov    %r13d,%edi
}
ffffffff800011a6:	5b                   	pop    %rbx
ffffffff800011a7:	41 5c                	pop    %r12
ffffffff800011a9:	41 5d                	pop    %r13
ffffffff800011ab:	5d                   	pop    %rbp
    outb(port, data);
ffffffff800011ac:	e9 bf 06 00 00       	jmpq   ffffffff80001870 <outb>
ffffffff800011b1:	66 66 2e 0f 1f 84 00 	data16 nopw %cs:0x0(%rax,%rax,1)
ffffffff800011b8:	00 00 00 00 
ffffffff800011bc:	0f 1f 40 00          	nopl   0x0(%rax)

ffffffff800011c0 <serial_write_str>:

void serial_write_str(uint16_t port, char* data)
{
ffffffff800011c0:	55                   	push   %rbp
ffffffff800011c1:	48 89 e5             	mov    %rsp,%rbp
ffffffff800011c4:	41 57                	push   %r15
ffffffff800011c6:	41 56                	push   %r14
ffffffff800011c8:	41 55                	push   %r13
ffffffff800011ca:	41 54                	push   %r12
ffffffff800011cc:	53                   	push   %rbx
ffffffff800011cd:	48 83 ec 08          	sub    $0x8,%rsp
    uint8_t i = 0;
    while(data[i] != 0)
ffffffff800011d1:	44 0f b6 26          	movzbl (%rsi),%r12d
ffffffff800011d5:	45 84 e4             	test   %r12b,%r12b
ffffffff800011d8:	74 3e                	je     ffffffff80001218 <serial_write_str+0x58>
    {
        serial_write(port, data[i]);
ffffffff800011da:	44 0f b7 ff          	movzwl %di,%r15d
    return inb(port + 5) & 0x20;
ffffffff800011de:	83 c7 05             	add    $0x5,%edi
ffffffff800011e1:	49 89 f6             	mov    %rsi,%r14
    uint8_t i = 0;
ffffffff800011e4:	45 31 ed             	xor    %r13d,%r13d
    return inb(port + 5) & 0x20;
ffffffff800011e7:	0f b7 df             	movzwl %di,%ebx
ffffffff800011ea:	66 0f 1f 44 00 00    	nopw   0x0(%rax,%rax,1)
ffffffff800011f0:	89 df                	mov    %ebx,%edi
ffffffff800011f2:	e8 89 06 00 00       	callq  ffffffff80001880 <inb>
    while(serial_is_tx_empty(port) == 0);
ffffffff800011f7:	a8 20                	test   $0x20,%al
ffffffff800011f9:	74 f5                	je     ffffffff800011f0 <serial_write_str+0x30>
    outb(port, data);
ffffffff800011fb:	44 89 e6             	mov    %r12d,%esi
ffffffff800011fe:	44 89 ff             	mov    %r15d,%edi
        //if(data[i] == '\n') serial_write(port, '\r');
        i++;
ffffffff80001201:	41 83 c5 01          	add    $0x1,%r13d
    outb(port, data);
ffffffff80001205:	e8 66 06 00 00       	callq  ffffffff80001870 <outb>
    while(data[i] != 0)
ffffffff8000120a:	41 0f b6 c5          	movzbl %r13b,%eax
ffffffff8000120e:	45 0f b6 24 06       	movzbl (%r14,%rax,1),%r12d
ffffffff80001213:	45 84 e4             	test   %r12b,%r12b
ffffffff80001216:	75 d8                	jne    ffffffff800011f0 <serial_write_str+0x30>
    }
ffffffff80001218:	48 83 c4 08          	add    $0x8,%rsp
ffffffff8000121c:	5b                   	pop    %rbx
ffffffff8000121d:	41 5c                	pop    %r12
ffffffff8000121f:	41 5d                	pop    %r13
ffffffff80001221:	41 5e                	pop    %r14
ffffffff80001223:	41 5f                	pop    %r15
ffffffff80001225:	5d                   	pop    %rbp
ffffffff80001226:	c3                   	retq   
ffffffff80001227:	66 0f 1f 84 00 00 00 	nopw   0x0(%rax,%rax,1)
ffffffff8000122e:	00 00 

ffffffff80001230 <stty_sendcmd>:
#include <serial.h>



void stty_sendcmd(uint16_t cmd)
{
ffffffff80001230:	55                   	push   %rbp
    serial_write(SERIAL_PORT1, 0x1B);
ffffffff80001231:	be 1b 00 00 00       	mov    $0x1b,%esi
ffffffff80001236:	bf f8 03 00 00       	mov    $0x3f8,%edi
{
ffffffff8000123b:	48 89 e5             	mov    %rsp,%rbp
    serial_write(SERIAL_PORT1, 0x1B);
ffffffff8000123e:	e8 2d ff ff ff       	callq  ffffffff80001170 <serial_write>
    serial_write(SERIAL_PORT1, 0x5B);
ffffffff80001243:	be 5b 00 00 00       	mov    $0x5b,%esi
ffffffff80001248:	bf f8 03 00 00       	mov    $0x3f8,%edi
ffffffff8000124d:	e8 1e ff ff ff       	callq  ffffffff80001170 <serial_write>
    serial_write(SERIAL_PORT1, '[');
ffffffff80001252:	be 5b 00 00 00       	mov    $0x5b,%esi
ffffffff80001257:	bf f8 03 00 00       	mov    $0x3f8,%edi
ffffffff8000125c:	e8 0f ff ff ff       	callq  ffffffff80001170 <serial_write>
    serial_write(SERIAL_PORT1, 'H');
ffffffff80001261:	be 48 00 00 00       	mov    $0x48,%esi
ffffffff80001266:	bf f8 03 00 00       	mov    $0x3f8,%edi
ffffffff8000126b:	e8 00 ff ff ff       	callq  ffffffff80001170 <serial_write>
    serial_write(SERIAL_PORT1, '~');
ffffffff80001270:	be 7e 00 00 00       	mov    $0x7e,%esi
ffffffff80001275:	bf f8 03 00 00       	mov    $0x3f8,%edi
ffffffff8000127a:	5d                   	pop    %rbp
    serial_write(SERIAL_PORT1, '~');
ffffffff8000127b:	e9 f0 fe ff ff       	jmpq   ffffffff80001170 <serial_write>

ffffffff80001280 <load_elf>:
//#include <memory.h>

uint64_t load_elf(void* ptr)
{

ffffffff80001280:	c3                   	retq   
ffffffff80001281:	66 2e 0f 1f 84 00 00 	nopw   %cs:0x0(%rax,%rax,1)
ffffffff80001288:	00 00 00 
ffffffff8000128b:	0f 1f 44 00 00       	nopl   0x0(%rax,%rax,1)

ffffffff80001290 <oct2bin>:

uint64_t oct2bin(uint8_t* str, uint16_t size)
{
    uint64_t n = 0;
    uint8_t* c = str;
    while (size-- > 0)
ffffffff80001290:	8d 46 ff             	lea    -0x1(%rsi),%eax
ffffffff80001293:	66 85 f6             	test   %si,%si
ffffffff80001296:	74 30                	je     ffffffff800012c8 <oct2bin+0x38>
ffffffff80001298:	0f b7 c0             	movzwl %ax,%eax
    uint64_t n = 0;
ffffffff8000129b:	31 d2                	xor    %edx,%edx
ffffffff8000129d:	48 8d 4c 07 01       	lea    0x1(%rdi,%rax,1),%rcx
ffffffff800012a2:	66 0f 1f 44 00 00    	nopw   0x0(%rax,%rax,1)
    {
        n *= 8;
        n += *c - '0';
ffffffff800012a8:	0f b6 07             	movzbl (%rdi),%eax
        c++;
ffffffff800012ab:	48 83 c7 01          	add    $0x1,%rdi
        n += *c - '0';
ffffffff800012af:	83 e8 30             	sub    $0x30,%eax
ffffffff800012b2:	48 98                	cltq   
ffffffff800012b4:	48 8d 14 d0          	lea    (%rax,%rdx,8),%rdx
    while (size-- > 0)
ffffffff800012b8:	48 39 cf             	cmp    %rcx,%rdi
ffffffff800012bb:	75 eb                	jne    ffffffff800012a8 <oct2bin+0x18>
    }
    return n;
}
ffffffff800012bd:	48 89 d0             	mov    %rdx,%rax
ffffffff800012c0:	c3                   	retq   
ffffffff800012c1:	0f 1f 80 00 00 00 00 	nopl   0x0(%rax)
    uint64_t n = 0;
ffffffff800012c8:	31 d2                	xor    %edx,%edx
}
ffffffff800012ca:	48 89 d0             	mov    %rdx,%rax
ffffffff800012cd:	c3                   	retq   
ffffffff800012ce:	66 90                	xchg   %ax,%ax

ffffffff800012d0 <gdt_init>:
uint8_t ist2[4096];

void gdt_init()
{
    gdt.null0.raw = 0x00;
    gdt.kcode.raw = 0x00AF9A000000FFFF;
ffffffff800012d0:	48 b8 ff ff 00 00 00 	movabs $0xaf9a000000ffff,%rax
ffffffff800012d7:	9a af 00 
    tss.ist1 = (uint64_t)ist1 + sizeof(ist1);

    gdtr.base = (uint64_t)&gdt;
    gdtr.limit = sizeof(gdt);

    gdt_load((uint64_t*)&gdtr, 0x50);
ffffffff800012da:	be 50 00 00 00       	mov    $0x50,%esi
ffffffff800012df:	48 c7 c7 80 f1 00 80 	mov    $0xffffffff8000f180,%rdi
    gdt.null0.raw = 0x00;
ffffffff800012e6:	48 c7 05 2f df 00 00 	movq   $0x0,0xdf2f(%rip)        # ffffffff8000f220 <gdt>
ffffffff800012ed:	00 00 00 00 
    gdt.kcode.raw = 0x00AF9A000000FFFF;
ffffffff800012f1:	48 89 05 30 df 00 00 	mov    %rax,0xdf30(%rip)        # ffffffff8000f228 <gdt+0x8>
    gdt.kdata.raw = 0x00AF92000000FFFF;
ffffffff800012f8:	48 b8 ff ff 00 00 00 	movabs $0xaf92000000ffff,%rax
ffffffff800012ff:	92 af 00 
ffffffff80001302:	48 89 05 27 df 00 00 	mov    %rax,0xdf27(%rip)        # ffffffff8000f230 <gdt+0x10>
    gdt.ucode.raw = 0x00AFFA000000FFFF;
ffffffff80001309:	48 b8 ff ff 00 00 00 	movabs $0xaffa000000ffff,%rax
ffffffff80001310:	fa af 00 
ffffffff80001313:	48 89 05 2e df 00 00 	mov    %rax,0xdf2e(%rip)        # ffffffff8000f248 <gdt+0x28>
    gdt.udata.raw = 0x00AFF2000000FFFF;
ffffffff8000131a:	48 b8 ff ff 00 00 00 	movabs $0xaff2000000ffff,%rax
ffffffff80001321:	f2 af 00 
ffffffff80001324:	48 89 05 15 df 00 00 	mov    %rax,0xdf15(%rip)        # ffffffff8000f240 <gdt+0x20>
    gdt.tss_entry.base0 = (uint64_t)&tss & 0xFFFF;
ffffffff8000132b:	48 c7 c0 a0 f1 00 80 	mov    $0xffffffff8000f1a0,%rax
    gdt.tss_entry.base16 = ((uint64_t)&tss >> 16) & 0xFF;
ffffffff80001332:	48 89 c2             	mov    %rax,%rdx
    gdt.tss_entry.base0 = (uint64_t)&tss & 0xFFFF;
ffffffff80001335:	66 89 05 36 df 00 00 	mov    %ax,0xdf36(%rip)        # ffffffff8000f272 <gdt+0x52>
    gdt.null1.raw = 0x00;
ffffffff8000133c:	48 c7 05 f1 de 00 00 	movq   $0x0,0xdef1(%rip)        # ffffffff8000f238 <gdt+0x18>
ffffffff80001343:	00 00 00 00 
    gdt.tss_entry.base16 = ((uint64_t)&tss >> 16) & 0xFF;
ffffffff80001347:	48 c1 ea 10          	shr    $0x10,%rdx
ffffffff8000134b:	88 15 23 df 00 00    	mov    %dl,0xdf23(%rip)        # ffffffff8000f274 <gdt+0x54>
    gdt.tss_entry.base24 = ((uint64_t)&tss >> 24) & 0xFF;
ffffffff80001351:	48 89 c2             	mov    %rax,%rdx
    gdt.tss_entry.base32 = ((uint64_t)&tss >> 32) & 0xFFFFFFFF;
ffffffff80001354:	48 c1 e8 20          	shr    $0x20,%rax
    gdt.tss_entry.base24 = ((uint64_t)&tss >> 24) & 0xFF;
ffffffff80001358:	48 c1 ea 18          	shr    $0x18,%rdx
    gdt.tss_entry.base32 = ((uint64_t)&tss >> 32) & 0xFFFFFFFF;
ffffffff8000135c:	89 05 16 df 00 00    	mov    %eax,0xdf16(%rip)        # ffffffff8000f278 <gdt+0x58>
    gdt.tss_entry.limit0 = sizeof(tss);
ffffffff80001362:	b8 68 00 00 00       	mov    $0x68,%eax
    gdt.tss_entry.base24 = ((uint64_t)&tss >> 24) & 0xFF;
ffffffff80001367:	88 15 0a df 00 00    	mov    %dl,0xdf0a(%rip)        # ffffffff8000f277 <gdt+0x57>
    gdtr.limit = sizeof(gdt);
ffffffff8000136d:	ba 60 00 00 00       	mov    $0x60,%edx
    gdt.tss_entry.limit0 = sizeof(tss);
ffffffff80001372:	66 89 05 f7 de 00 00 	mov    %ax,0xdef7(%rip)        # ffffffff8000f270 <gdt+0x50>
    gdt.tss_entry.segment_type = 0x09;      //64 bit TSS
ffffffff80001379:	8b 05 f5 de 00 00    	mov    0xdef5(%rip),%eax        # ffffffff8000f274 <gdt+0x54>
    gdt.null2.raw = 0x00;
ffffffff8000137f:	48 c7 05 c6 de 00 00 	movq   $0x0,0xdec6(%rip)        # ffffffff8000f250 <gdt+0x30>
ffffffff80001386:	00 00 00 00 
    gdt.tss_entry.segment_type = 0x09;      //64 bit TSS
ffffffff8000138a:	25 ff 00 40 ff       	and    $0xff4000ff,%eax
    gdt.null3.raw = 0x00;
ffffffff8000138f:	48 c7 05 be de 00 00 	movq   $0x0,0xdebe(%rip)        # ffffffff8000f258 <gdt+0x38>
ffffffff80001396:	00 00 00 00 
    gdt.tss_entry.segment_type = 0x09;      //64 bit TSS
ffffffff8000139a:	80 cc 89             	or     $0x89,%ah
    gdt.null4.raw = 0x00;
ffffffff8000139d:	48 c7 05 b8 de 00 00 	movq   $0x0,0xdeb8(%rip)        # ffffffff8000f260 <gdt+0x40>
ffffffff800013a4:	00 00 00 00 
    gdt.null5.raw = 0x00;
ffffffff800013a8:	48 c7 05 b5 de 00 00 	movq   $0x0,0xdeb5(%rip)        # ffffffff8000f268 <gdt+0x48>
ffffffff800013af:	00 00 00 00 
    gdt.tss_entry.segment_type = 0x09;      //64 bit TSS
ffffffff800013b3:	89 05 bb de 00 00    	mov    %eax,0xdebb(%rip)        # ffffffff8000f274 <gdt+0x54>
    gdt.tss_entry.reserved1 = 0;
ffffffff800013b9:	c7 05 b9 de 00 00 00 	movl   $0x0,0xdeb9(%rip)        # ffffffff8000f27c <gdt+0x5c>
ffffffff800013c0:	00 00 00 
    tss.reserved0 = 0x00;
ffffffff800013c3:	c7 05 d3 dd 00 00 00 	movl   $0x0,0xddd3(%rip)        # ffffffff8000f1a0 <tss>
ffffffff800013ca:	00 00 00 
    tss.RSP0 = (uint64_t)stack + sizeof(stack);
ffffffff800013cd:	48 c7 05 cc dd 00 00 	movq   $0xffffffff80009d80,0xddcc(%rip)        # ffffffff8000f1a4 <tss+0x4>
ffffffff800013d4:	80 9d 00 80 
    tss.RSP2 = (uint64_t)rsp2stack + sizeof(rsp2stack);
ffffffff800013d8:	48 c7 05 d1 dd 00 00 	movq   $0xffffffff8000f180,0xddd1(%rip)        # ffffffff8000f1b4 <tss+0x14>
ffffffff800013df:	80 f1 00 80 
    tss.ist1 = (uint64_t)ist1 + sizeof(ist1);
ffffffff800013e3:	48 c7 05 d6 dd 00 00 	movq   $0xffffffff8000d180,0xddd6(%rip)        # ffffffff8000f1c4 <tss+0x24>
ffffffff800013ea:	80 d1 00 80 
    gdtr.base = (uint64_t)&gdt;
ffffffff800013ee:	48 c7 05 89 dd 00 00 	movq   $0xffffffff8000f220,0xdd89(%rip)        # ffffffff8000f182 <gdtr+0x2>
ffffffff800013f5:	20 f2 00 80 
    gdtr.limit = sizeof(gdt);
ffffffff800013f9:	66 89 15 80 dd 00 00 	mov    %dx,0xdd80(%rip)        # ffffffff8000f180 <gdtr>
    gdt_load((uint64_t*)&gdtr, 0x50);
ffffffff80001400:	e9 fb eb ff ff       	jmpq   ffffffff80000000 <gdt_load>
ffffffff80001405:	66 2e 0f 1f 84 00 00 	nopw   %cs:0x0(%rax,%rax,1)
ffffffff8000140c:	00 00 00 
ffffffff8000140f:	90                   	nop

ffffffff80001410 <create_descriptor>:

void create_descriptor(uint16_t index, void* isr, uint8_t ist, uint8_t cs, uint8_t attr)
{
    struct idt_entry* entry = &idt[index];

    entry->base15_0 = (uint64_t)isr & 0xFFFF;
ffffffff80001410:	0f b7 ff             	movzwl %di,%edi
    entry->base31_16 = ((uint64_t)isr >> 16) & 0xFFFF;
    entry->base63_32 = ((uint64_t)isr >> 32) & 0xFFFFFFFF;
    entry->ist = ist;
    entry->kernel_cs = cs;
ffffffff80001413:	0f b6 c9             	movzbl %cl,%ecx
    entry->base15_0 = (uint64_t)isr & 0xFFFF;
ffffffff80001416:	48 c1 e7 04          	shl    $0x4,%rdi
ffffffff8000141a:	48 8d 87 a0 f2 00 80 	lea    -0x7fff0d60(%rdi),%rax
ffffffff80001421:	66 89 b7 a0 f2 00 80 	mov    %si,-0x7fff0d60(%rdi)
    entry->base31_16 = ((uint64_t)isr >> 16) & 0xFFFF;
ffffffff80001428:	48 89 f7             	mov    %rsi,%rdi
    entry->base63_32 = ((uint64_t)isr >> 32) & 0xFFFFFFFF;
ffffffff8000142b:	48 c1 ee 20          	shr    $0x20,%rsi
    entry->base31_16 = ((uint64_t)isr >> 16) & 0xFFFF;
ffffffff8000142f:	48 c1 ef 10          	shr    $0x10,%rdi
    entry->base63_32 = ((uint64_t)isr >> 32) & 0xFFFFFFFF;
ffffffff80001433:	89 70 08             	mov    %esi,0x8(%rax)
    entry->base31_16 = ((uint64_t)isr >> 16) & 0xFFFF;
ffffffff80001436:	66 89 78 06          	mov    %di,0x6(%rax)
    entry->ist = ist;
ffffffff8000143a:	88 50 04             	mov    %dl,0x4(%rax)
    entry->kernel_cs = cs;
ffffffff8000143d:	66 89 48 02          	mov    %cx,0x2(%rax)
    entry->attributes = attr;
ffffffff80001441:	44 88 40 05          	mov    %r8b,0x5(%rax)
    entry->reserved = 0;
ffffffff80001445:	c7 40 0c 00 00 00 00 	movl   $0x0,0xc(%rax)
}
ffffffff8000144c:	c3                   	retq   
ffffffff8000144d:	0f 1f 00             	nopl   (%rax)

ffffffff80001450 <idt_init>:

void idt_init()
{
ffffffff80001450:	55                   	push   %rbp
    //uint64_t idt_ptr = hh_code_to_phys((uint64_t)&idt[0]);
    idtr.base = (uint64_t)&idt[0];
    idtr.limit = (uint16_t)(sizeof(idt) - 1);
ffffffff80001451:	b9 ff 0f 00 00       	mov    $0xfff,%ecx
ffffffff80001456:	0f b7 3d e3 42 00 00 	movzwl 0x42e3(%rip),%edi        # ffffffff80005740 <_page_fault_errors+0x40>
ffffffff8000145d:	49 c7 c0 90 f5 00 80 	mov    $0xffffffff8000f590,%r8
ffffffff80001464:	66 89 0d 1d de 00 00 	mov    %cx,0xde1d(%rip)        # ffffffff8000f288 <idtr>
ffffffff8000146b:	48 c7 c0 a0 f2 00 80 	mov    $0xffffffff8000f2a0,%rax
ffffffff80001472:	48 c7 c1 08 02 00 80 	mov    $0xffffffff80000208,%rcx
    idtr.base = (uint64_t)&idt[0];
ffffffff80001479:	48 c7 05 06 de 00 00 	movq   $0xffffffff8000f2a0,0xde06(%rip)        # ffffffff8000f28a <idtr+0x2>
ffffffff80001480:	a0 f2 00 80 
{
ffffffff80001484:	48 89 e5             	mov    %rsp,%rbp
ffffffff80001487:	66 0f 1f 84 00 00 00 	nopw   0x0(%rax,%rax,1)
ffffffff8000148e:	00 00 

    for(uint8_t index = 0; index < 47; index++)
    {
        create_descriptor(index, isr_stub_table[index], 0x00, 0x08, 0x8E);
ffffffff80001490:	48 8b 11             	mov    (%rcx),%rdx
    entry->ist = ist;
ffffffff80001493:	66 89 78 04          	mov    %di,0x4(%rax)
    for(uint8_t index = 0; index < 47; index++)
ffffffff80001497:	48 83 c0 10          	add    $0x10,%rax
ffffffff8000149b:	48 83 c1 08          	add    $0x8,%rcx
    entry->reserved = 0;
ffffffff8000149f:	c7 40 fc 00 00 00 00 	movl   $0x0,-0x4(%rax)
    entry->base31_16 = ((uint64_t)isr >> 16) & 0xFFFF;
ffffffff800014a6:	48 89 d6             	mov    %rdx,%rsi
    entry->base15_0 = (uint64_t)isr & 0xFFFF;
ffffffff800014a9:	66 89 50 f0          	mov    %dx,-0x10(%rax)
    entry->base63_32 = ((uint64_t)isr >> 32) & 0xFFFFFFFF;
ffffffff800014ad:	48 c1 ea 20          	shr    $0x20,%rdx
ffffffff800014b1:	89 50 f8             	mov    %edx,-0x8(%rax)
    entry->base31_16 = ((uint64_t)isr >> 16) & 0xFFFF;
ffffffff800014b4:	48 c1 ee 10          	shr    $0x10,%rsi
    entry->kernel_cs = cs;
ffffffff800014b8:	ba 08 00 00 00       	mov    $0x8,%edx
    entry->base31_16 = ((uint64_t)isr >> 16) & 0xFFFF;
ffffffff800014bd:	66 89 70 f6          	mov    %si,-0xa(%rax)
    entry->kernel_cs = cs;
ffffffff800014c1:	66 89 50 f2          	mov    %dx,-0xe(%rax)
    for(uint8_t index = 0; index < 47; index++)
ffffffff800014c5:	49 39 c0             	cmp    %rax,%r8
ffffffff800014c8:	75 c6                	jne    ffffffff80001490 <idt_init+0x40>
    }

    create_descriptor(127, isr_stub_table[48], 0x00, 0x08, 0x8E);
ffffffff800014ca:	48 8b 05 b7 ee ff ff 	mov    -0x1149(%rip),%rax        # ffffffff80000388 <isr_stub_table+0x180>
    entry->kernel_cs = cs;
ffffffff800014d1:	c7 05 b7 e5 00 00 08 	movl   $0x8e000008,0xe5b7(%rip)        # ffffffff8000fa92 <idt+0x7f2>
ffffffff800014d8:	00 00 8e 
    entry->reserved = 0;
ffffffff800014db:	c7 05 b7 e5 00 00 00 	movl   $0x0,0xe5b7(%rip)        # ffffffff8000fa9c <idt+0x7fc>
ffffffff800014e2:	00 00 00 
    entry->base15_0 = (uint64_t)isr & 0xFFFF;
ffffffff800014e5:	66 89 05 a4 e5 00 00 	mov    %ax,0xe5a4(%rip)        # ffffffff8000fa90 <idt+0x7f0>
    entry->base31_16 = ((uint64_t)isr >> 16) & 0xFFFF;
ffffffff800014ec:	48 89 c2             	mov    %rax,%rdx
    entry->base63_32 = ((uint64_t)isr >> 32) & 0xFFFFFFFF;
ffffffff800014ef:	48 c1 e8 20          	shr    $0x20,%rax
ffffffff800014f3:	89 05 9f e5 00 00    	mov    %eax,0xe59f(%rip)        # ffffffff8000fa98 <idt+0x7f8>
    entry->base31_16 = ((uint64_t)isr >> 16) & 0xFFFF;
ffffffff800014f9:	48 c1 ea 10          	shr    $0x10,%rdx
    create_descriptor(128, isr_stub_table[49], 0x00, 0x08, 0x8E);
ffffffff800014fd:	48 8b 05 8c ee ff ff 	mov    -0x1174(%rip),%rax        # ffffffff80000390 <isr_stub_table+0x188>
    entry->base31_16 = ((uint64_t)isr >> 16) & 0xFFFF;
ffffffff80001504:	66 89 15 8b e5 00 00 	mov    %dx,0xe58b(%rip)        # ffffffff8000fa96 <idt+0x7f6>
    entry->base15_0 = (uint64_t)isr & 0xFFFF;
ffffffff8000150b:	66 89 05 8e e5 00 00 	mov    %ax,0xe58e(%rip)        # ffffffff8000faa0 <idt+0x800>
    entry->base31_16 = ((uint64_t)isr >> 16) & 0xFFFF;
ffffffff80001512:	48 89 c2             	mov    %rax,%rdx
    entry->base63_32 = ((uint64_t)isr >> 32) & 0xFFFFFFFF;
ffffffff80001515:	48 c1 e8 20          	shr    $0x20,%rax
    entry->base31_16 = ((uint64_t)isr >> 16) & 0xFFFF;
ffffffff80001519:	48 c1 ea 10          	shr    $0x10,%rdx
    entry->base63_32 = ((uint64_t)isr >> 32) & 0xFFFFFFFF;
ffffffff8000151d:	89 05 85 e5 00 00    	mov    %eax,0xe585(%rip)        # ffffffff8000faa8 <idt+0x808>

    pic_remap();
ffffffff80001523:	31 c0                	xor    %eax,%eax
    entry->base31_16 = ((uint64_t)isr >> 16) & 0xFFFF;
ffffffff80001525:	66 89 15 7a e5 00 00 	mov    %dx,0xe57a(%rip)        # ffffffff8000faa6 <idt+0x806>
    entry->kernel_cs = cs;
ffffffff8000152c:	c7 05 6c e5 00 00 08 	movl   $0x8e000008,0xe56c(%rip)        # ffffffff8000faa2 <idt+0x802>
ffffffff80001533:	00 00 8e 
    entry->reserved = 0;
ffffffff80001536:	c7 05 6c e5 00 00 00 	movl   $0x0,0xe56c(%rip)        # ffffffff8000faac <idt+0x80c>
ffffffff8000153d:	00 00 00 
    pic_remap();
ffffffff80001540:	e8 9b f9 ff ff       	callq  ffffffff80000ee0 <pic_remap>
    pic_disable();
ffffffff80001545:	31 c0                	xor    %eax,%eax
ffffffff80001547:	e8 64 f9 ff ff       	callq  ffffffff80000eb0 <pic_disable>

    

    idt_load(&idtr);
ffffffff8000154c:	48 c7 c7 88 f2 00 80 	mov    $0xffffffff8000f288,%rdi
ffffffff80001553:	e8 40 ee ff ff       	callq  ffffffff80000398 <idt_load>

    pit_init(10000);
ffffffff80001558:	bf 10 27 00 00       	mov    $0x2710,%edi
ffffffff8000155d:	e8 7e fa ff ff       	callq  ffffffff80000fe0 <pit_init>

    pic_clear_mask(1);
ffffffff80001562:	bf 01 00 00 00       	mov    $0x1,%edi
ffffffff80001567:	e8 04 f9 ff ff       	callq  ffffffff80000e70 <pic_clear_mask>
    pic_clear_mask(0);
ffffffff8000156c:	31 ff                	xor    %edi,%edi
ffffffff8000156e:	e8 fd f8 ff ff       	callq  ffffffff80000e70 <pic_clear_mask>

    serial_printf(SERIAL_PORT1, "IDT: %p\n", (uint64_t)&idt);
ffffffff80001573:	48 c7 c2 a0 f2 00 80 	mov    $0xffffffff8000f2a0,%rdx
ffffffff8000157a:	31 c0                	xor    %eax,%eax

    //__asm__ volatile ("lidt %0" : : "m"(idtr));
    //__asm__ volatile ("sti");
}
ffffffff8000157c:	5d                   	pop    %rbp
    serial_printf(SERIAL_PORT1, "IDT: %p\n", (uint64_t)&idt);
ffffffff8000157d:	48 c7 c6 5a 53 00 80 	mov    $0xffffffff8000535a,%rsi
ffffffff80001584:	bf f8 03 00 00       	mov    $0x3f8,%edi
ffffffff80001589:	e9 e2 2b 00 00       	jmpq   ffffffff80004170 <serial_printf>
ffffffff8000158e:	66 90                	xchg   %ax,%ax

ffffffff80001590 <interrupt_handler>:

uint64_t interrupt_handler(uint64_t rsp)
{
ffffffff80001590:	55                   	push   %rbp
ffffffff80001591:	48 89 e5             	mov    %rsp,%rbp
ffffffff80001594:	41 54                	push   %r12
ffffffff80001596:	53                   	push   %rbx
    struct interrupt_stack_frame* frame = (struct interrupt_stack_frame*)rsp;
    
    if(frame->int_no < 32)
ffffffff80001597:	48 8b 77 78          	mov    0x78(%rdi),%rsi
{
ffffffff8000159b:	48 89 fb             	mov    %rdi,%rbx
    if(frame->int_no < 32)
ffffffff8000159e:	48 83 fe 1f          	cmp    $0x1f,%rsi
ffffffff800015a2:	77 1c                	ja     ffffffff800015c0 <interrupt_handler+0x30>
    {
        if(frame->cs == 0x08)
ffffffff800015a4:	48 83 bf 90 00 00 00 	cmpq   $0x8,0x90(%rdi)
ffffffff800015ab:	08 
ffffffff800015ac:	74 32                	je     ffffffff800015e0 <interrupt_handler+0x50>
    {
        printf("Syscall 127\n");
        return rsp;
    }
    return rsp;
ffffffff800015ae:	48 8d 65 f0          	lea    -0x10(%rbp),%rsp
ffffffff800015b2:	48 89 d8             	mov    %rbx,%rax
ffffffff800015b5:	5b                   	pop    %rbx
ffffffff800015b6:	41 5c                	pop    %r12
ffffffff800015b8:	5d                   	pop    %rbp
ffffffff800015b9:	c3                   	retq   
ffffffff800015ba:	66 0f 1f 44 00 00    	nopw   0x0(%rax,%rax,1)
    else if (frame->int_no < 48)
ffffffff800015c0:	48 83 fe 2f          	cmp    $0x2f,%rsi
ffffffff800015c4:	0f 86 06 02 00 00    	jbe    ffffffff800017d0 <interrupt_handler+0x240>
    else if (frame->int_no == 127)
ffffffff800015ca:	48 83 fe 7f          	cmp    $0x7f,%rsi
ffffffff800015ce:	75 de                	jne    ffffffff800015ae <interrupt_handler+0x1e>
        printf("Syscall 127\n");
ffffffff800015d0:	48 c7 c7 89 53 00 80 	mov    $0xffffffff80005389,%rdi
ffffffff800015d7:	31 c0                	xor    %eax,%eax
ffffffff800015d9:	e8 d2 29 00 00       	callq  ffffffff80003fb0 <printf_>
        return rsp;
ffffffff800015de:	eb ce                	jmp    ffffffff800015ae <interrupt_handler+0x1e>
            uint64_t cr2 = read_cr2();
ffffffff800015e0:	31 c0                	xor    %eax,%eax
ffffffff800015e2:	e8 49 ea ff ff       	callq  ffffffff80000030 <read_cr2>
            serial_printf(SERIAL_PORT1, "CPU Exception: %d  ERR %x  CR2 %p\r\n", frame->int_no, frame->err_no, cr2);
ffffffff800015e7:	48 8b 8b 80 00 00 00 	mov    0x80(%rbx),%rcx
ffffffff800015ee:	48 8b 53 78          	mov    0x78(%rbx),%rdx
ffffffff800015f2:	48 c7 c6 08 55 00 80 	mov    $0xffffffff80005508,%rsi
ffffffff800015f9:	49 89 c0             	mov    %rax,%r8
ffffffff800015fc:	bf f8 03 00 00       	mov    $0x3f8,%edi
            uint64_t cr2 = read_cr2();
ffffffff80001601:	49 89 c4             	mov    %rax,%r12
            serial_printf(SERIAL_PORT1, "CPU Exception: %d  ERR %x  CR2 %p\r\n", frame->int_no, frame->err_no, cr2);
ffffffff80001604:	31 c0                	xor    %eax,%eax
ffffffff80001606:	e8 65 2b 00 00       	callq  ffffffff80004170 <serial_printf>
            serial_printf(SERIAL_PORT1, _exception_messages[frame->int_no]);
ffffffff8000160b:	48 8b 43 78          	mov    0x78(%rbx),%rax
ffffffff8000160f:	bf f8 03 00 00       	mov    $0x3f8,%edi
ffffffff80001614:	48 8b 34 c5 00 56 00 	mov    -0x7fffaa00(,%rax,8),%rsi
ffffffff8000161b:	80 
ffffffff8000161c:	31 c0                	xor    %eax,%eax
ffffffff8000161e:	e8 4d 2b 00 00       	callq  ffffffff80004170 <serial_printf>
            serial_printf(SERIAL_PORT1, "\n");
ffffffff80001623:	31 c0                	xor    %eax,%eax
ffffffff80001625:	bf f8 03 00 00       	mov    $0x3f8,%edi
ffffffff8000162a:	48 c7 c6 e8 58 00 80 	mov    $0xffffffff800058e8,%rsi
ffffffff80001631:	e8 3a 2b 00 00       	callq  ffffffff80004170 <serial_printf>
            if (frame->int_no == 0xE) 
ffffffff80001636:	48 83 7b 78 0e       	cmpq   $0xe,0x78(%rbx)
ffffffff8000163b:	0f 84 fc 01 00 00    	je     ffffffff8000183d <interrupt_handler+0x2ad>
            serial_printf(SERIAL_PORT1, "SS: %x  RSP: %x  RFLAGS: %x  CS: %x  RIP: %x\n", frame->ss, frame->rsp, frame->rflags, frame->cs, frame->rip);
ffffffff80001641:	48 83 ec 08          	sub    $0x8,%rsp
ffffffff80001645:	48 8b 8b a0 00 00 00 	mov    0xa0(%rbx),%rcx
ffffffff8000164c:	31 c0                	xor    %eax,%eax
ffffffff8000164e:	bf f8 03 00 00       	mov    $0x3f8,%edi
ffffffff80001653:	48 8b 93 a8 00 00 00 	mov    0xa8(%rbx),%rdx
ffffffff8000165a:	ff b3 88 00 00 00    	pushq  0x88(%rbx)
ffffffff80001660:	48 c7 c6 30 55 00 80 	mov    $0xffffffff80005530,%rsi
ffffffff80001667:	4c 8b 8b 90 00 00 00 	mov    0x90(%rbx),%r9
ffffffff8000166e:	4c 8b 83 98 00 00 00 	mov    0x98(%rbx),%r8
ffffffff80001675:	e8 f6 2a 00 00       	callq  ffffffff80004170 <serial_printf>
            serial_printf(SERIAL_PORT1, "rax: %x  rbx: %x  rcx: %x  rdx: %x  rsi: %x  rdi: %x\n", frame->rax, frame->rbx, frame->rcx, frame->rdx, frame->rsi, frame->rdi);
ffffffff8000167a:	48 8b 4b 68          	mov    0x68(%rbx),%rcx
ffffffff8000167e:	48 8b 53 70          	mov    0x70(%rbx),%rdx
ffffffff80001682:	ff 73 48             	pushq  0x48(%rbx)
ffffffff80001685:	ff 73 50             	pushq  0x50(%rbx)
ffffffff80001688:	31 c0                	xor    %eax,%eax
ffffffff8000168a:	bf f8 03 00 00       	mov    $0x3f8,%edi
ffffffff8000168f:	48 c7 c6 60 55 00 80 	mov    $0xffffffff80005560,%rsi
ffffffff80001696:	4c 8b 4b 58          	mov    0x58(%rbx),%r9
ffffffff8000169a:	4c 8b 43 60          	mov    0x60(%rbx),%r8
ffffffff8000169e:	e8 cd 2a 00 00       	callq  ffffffff80004170 <serial_printf>
            serial_printf(SERIAL_PORT1, "r8: %x  r9: %x  r10: %x  r11: %x  r12: %x  r13: %x\n", frame->r8, frame->r9, frame->r10, frame->r11, frame->r12, frame->r13);
ffffffff800016a3:	48 83 c4 20          	add    $0x20,%rsp
ffffffff800016a7:	48 8b 4b 30          	mov    0x30(%rbx),%rcx
ffffffff800016ab:	31 c0                	xor    %eax,%eax
ffffffff800016ad:	48 8b 53 38          	mov    0x38(%rbx),%rdx
ffffffff800016b1:	ff 73 10             	pushq  0x10(%rbx)
ffffffff800016b4:	48 c7 c6 98 55 00 80 	mov    $0xffffffff80005598,%rsi
ffffffff800016bb:	bf f8 03 00 00       	mov    $0x3f8,%edi
ffffffff800016c0:	ff 73 18             	pushq  0x18(%rbx)
ffffffff800016c3:	4c 8b 4b 20          	mov    0x20(%rbx),%r9
ffffffff800016c7:	4c 8b 43 28          	mov    0x28(%rbx),%r8
ffffffff800016cb:	e8 a0 2a 00 00       	callq  ffffffff80004170 <serial_printf>
            serial_printf(SERIAL_PORT1, "r14: %x  r15: %x\n", frame->r14, frame->r15);
ffffffff800016d0:	48 8b 0b             	mov    (%rbx),%rcx
ffffffff800016d3:	48 8b 53 08          	mov    0x8(%rbx),%rdx
ffffffff800016d7:	31 c0                	xor    %eax,%eax
ffffffff800016d9:	48 c7 c6 63 53 00 80 	mov    $0xffffffff80005363,%rsi
ffffffff800016e0:	bf f8 03 00 00       	mov    $0x3f8,%edi
ffffffff800016e5:	e8 86 2a 00 00       	callq  ffffffff80004170 <serial_printf>
            printf("\nCPU Exception! INT %d   ERR %x  CR2 %p\n", frame->int_no, frame->err_no, cr2);
ffffffff800016ea:	48 8b 73 78          	mov    0x78(%rbx),%rsi
ffffffff800016ee:	4c 89 e1             	mov    %r12,%rcx
ffffffff800016f1:	31 c0                	xor    %eax,%eax
ffffffff800016f3:	48 8b 93 80 00 00 00 	mov    0x80(%rbx),%rdx
ffffffff800016fa:	48 c7 c7 d0 55 00 80 	mov    $0xffffffff800055d0,%rdi
ffffffff80001701:	e8 aa 28 00 00       	callq  ffffffff80003fb0 <printf_>
            printf(_exception_messages[frame->int_no]);
ffffffff80001706:	48 8b 43 78          	mov    0x78(%rbx),%rax
ffffffff8000170a:	48 8b 3c c5 00 56 00 	mov    -0x7fffaa00(,%rax,8),%rdi
ffffffff80001711:	80 
ffffffff80001712:	31 c0                	xor    %eax,%eax
ffffffff80001714:	e8 97 28 00 00       	callq  ffffffff80003fb0 <printf_>
            printf("\n");
ffffffff80001719:	48 c7 c7 e8 58 00 80 	mov    $0xffffffff800058e8,%rdi
ffffffff80001720:	31 c0                	xor    %eax,%eax
ffffffff80001722:	e8 89 28 00 00       	callq  ffffffff80003fb0 <printf_>
            if (frame->int_no == 0xE) 
ffffffff80001727:	48 83 7b 78 0e       	cmpq   $0xe,0x78(%rbx)
ffffffff8000172c:	5e                   	pop    %rsi
ffffffff8000172d:	5f                   	pop    %rdi
ffffffff8000172e:	0f 84 e0 00 00 00    	je     ffffffff80001814 <interrupt_handler+0x284>
            printf("SS: %x  RSP: %x  RFLAGS: %x  CS: %x  RIP: %x\n", frame->ss, frame->rsp, frame->rflags, frame->cs, frame->rip);
ffffffff80001734:	48 8b 8b 98 00 00 00 	mov    0x98(%rbx),%rcx
ffffffff8000173b:	48 8b 93 a0 00 00 00 	mov    0xa0(%rbx),%rdx
ffffffff80001742:	31 c0                	xor    %eax,%eax
ffffffff80001744:	48 c7 c7 30 55 00 80 	mov    $0xffffffff80005530,%rdi
ffffffff8000174b:	48 8b b3 a8 00 00 00 	mov    0xa8(%rbx),%rsi
ffffffff80001752:	4c 8b 8b 88 00 00 00 	mov    0x88(%rbx),%r9
ffffffff80001759:	4c 8b 83 90 00 00 00 	mov    0x90(%rbx),%r8
ffffffff80001760:	e8 4b 28 00 00       	callq  ffffffff80003fb0 <printf_>
            printf("rax: %x  rbx: %x  rcx: %x  rdx: %x  rsi: %x  rdi: %x\n", frame->rax, frame->rbx, frame->rcx, frame->rdx, frame->rsi, frame->rdi);
ffffffff80001765:	48 83 ec 08          	sub    $0x8,%rsp
ffffffff80001769:	48 8b 4b 60          	mov    0x60(%rbx),%rcx
ffffffff8000176d:	31 c0                	xor    %eax,%eax
ffffffff8000176f:	48 8b 53 68          	mov    0x68(%rbx),%rdx
ffffffff80001773:	48 8b 73 70          	mov    0x70(%rbx),%rsi
ffffffff80001777:	ff 73 48             	pushq  0x48(%rbx)
ffffffff8000177a:	48 c7 c7 60 55 00 80 	mov    $0xffffffff80005560,%rdi
ffffffff80001781:	4c 8b 4b 50          	mov    0x50(%rbx),%r9
ffffffff80001785:	4c 8b 43 58          	mov    0x58(%rbx),%r8
ffffffff80001789:	e8 22 28 00 00       	callq  ffffffff80003fb0 <printf_>
            printf("r8: %x  r9: %x  r10: %x  r11: %x  r12: %x  r13: %x\n", frame->r8, frame->r9, frame->r10, frame->r11, frame->r12, frame->r13);
ffffffff8000178e:	58                   	pop    %rax
ffffffff8000178f:	48 8b 4b 28          	mov    0x28(%rbx),%rcx
ffffffff80001793:	31 c0                	xor    %eax,%eax
ffffffff80001795:	48 8b 53 30          	mov    0x30(%rbx),%rdx
ffffffff80001799:	48 8b 73 38          	mov    0x38(%rbx),%rsi
ffffffff8000179d:	ff 73 10             	pushq  0x10(%rbx)
ffffffff800017a0:	48 c7 c7 98 55 00 80 	mov    $0xffffffff80005598,%rdi
ffffffff800017a7:	4c 8b 4b 18          	mov    0x18(%rbx),%r9
ffffffff800017ab:	4c 8b 43 20          	mov    0x20(%rbx),%r8
ffffffff800017af:	e8 fc 27 00 00       	callq  ffffffff80003fb0 <printf_>
            printf("r14: %x  r15: %x\n", frame->r14, frame->r15);
ffffffff800017b4:	48 8b 13             	mov    (%rbx),%rdx
ffffffff800017b7:	48 8b 73 08          	mov    0x8(%rbx),%rsi
ffffffff800017bb:	31 c0                	xor    %eax,%eax
ffffffff800017bd:	48 c7 c7 63 53 00 80 	mov    $0xffffffff80005363,%rdi
ffffffff800017c4:	e8 e7 27 00 00       	callq  ffffffff80003fb0 <printf_>
            asm("cli");
ffffffff800017c9:	fa                   	cli    
            asm("hlt");
ffffffff800017ca:	f4                   	hlt    
ffffffff800017cb:	5a                   	pop    %rdx
ffffffff800017cc:	59                   	pop    %rcx
            for(;;);
ffffffff800017cd:	eb fe                	jmp    ffffffff800017cd <interrupt_handler+0x23d>
ffffffff800017cf:	90                   	nop
        uint64_t irq = frame->int_no - 32;
ffffffff800017d0:	4c 8d 66 e0          	lea    -0x20(%rsi),%r12
        if(irq > 1)
ffffffff800017d4:	49 83 fc 01          	cmp    $0x1,%r12
ffffffff800017d8:	77 27                	ja     ffffffff80001801 <interrupt_handler+0x271>
        switch(irq)
ffffffff800017da:	74 1c                	je     ffffffff800017f8 <interrupt_handler+0x268>
                pit_ticks++;
ffffffff800017dc:	48 83 05 9c da 00 00 	addq   $0x1,0xda9c(%rip)        # ffffffff8000f280 <pit_ticks>
ffffffff800017e3:	01 
        pic_EOI(irq);
ffffffff800017e4:	44 89 e7             	mov    %r12d,%edi
ffffffff800017e7:	e8 f4 f5 ff ff       	callq  ffffffff80000de0 <pic_EOI>
ffffffff800017ec:	48 8d 65 f0          	lea    -0x10(%rbp),%rsp
ffffffff800017f0:	48 89 d8             	mov    %rbx,%rax
ffffffff800017f3:	5b                   	pop    %rbx
ffffffff800017f4:	41 5c                	pop    %r12
ffffffff800017f6:	5d                   	pop    %rbp
ffffffff800017f7:	c3                   	retq   
                kbd_handle();
ffffffff800017f8:	31 c0                	xor    %eax,%eax
ffffffff800017fa:	e8 21 f5 ff ff       	callq  ffffffff80000d20 <kbd_handle>
                break;
ffffffff800017ff:	eb e3                	jmp    ffffffff800017e4 <interrupt_handler+0x254>
            printf("INT: %d  IRQ: %d  \n", frame->int_no, irq);
ffffffff80001801:	4c 89 e2             	mov    %r12,%rdx
ffffffff80001804:	48 c7 c7 75 53 00 80 	mov    $0xffffffff80005375,%rdi
ffffffff8000180b:	31 c0                	xor    %eax,%eax
ffffffff8000180d:	e8 9e 27 00 00       	callq  ffffffff80003fb0 <printf_>
        switch(irq)
ffffffff80001812:	eb d0                	jmp    ffffffff800017e4 <interrupt_handler+0x254>
                printf(_page_fault_errors[frame->err_no]);
ffffffff80001814:	48 8b 83 80 00 00 00 	mov    0x80(%rbx),%rax
ffffffff8000181b:	48 8b 3c c5 00 57 00 	mov    -0x7fffa900(,%rax,8),%rdi
ffffffff80001822:	80 
ffffffff80001823:	31 c0                	xor    %eax,%eax
ffffffff80001825:	e8 86 27 00 00       	callq  ffffffff80003fb0 <printf_>
                printf("\n");
ffffffff8000182a:	48 c7 c7 e8 58 00 80 	mov    $0xffffffff800058e8,%rdi
ffffffff80001831:	31 c0                	xor    %eax,%eax
ffffffff80001833:	e8 78 27 00 00       	callq  ffffffff80003fb0 <printf_>
ffffffff80001838:	e9 f7 fe ff ff       	jmpq   ffffffff80001734 <interrupt_handler+0x1a4>
                serial_printf(SERIAL_PORT1, _page_fault_errors[frame->err_no]);
ffffffff8000183d:	48 8b 83 80 00 00 00 	mov    0x80(%rbx),%rax
ffffffff80001844:	bf f8 03 00 00       	mov    $0x3f8,%edi
ffffffff80001849:	48 8b 34 c5 00 57 00 	mov    -0x7fffa900(,%rax,8),%rsi
ffffffff80001850:	80 
ffffffff80001851:	31 c0                	xor    %eax,%eax
ffffffff80001853:	e8 18 29 00 00       	callq  ffffffff80004170 <serial_printf>
                serial_printf(SERIAL_PORT1, "\n");
ffffffff80001858:	48 c7 c6 e8 58 00 80 	mov    $0xffffffff800058e8,%rsi
ffffffff8000185f:	bf f8 03 00 00       	mov    $0x3f8,%edi
ffffffff80001864:	31 c0                	xor    %eax,%eax
ffffffff80001866:	e8 05 29 00 00       	callq  ffffffff80004170 <serial_printf>
ffffffff8000186b:	e9 d1 fd ff ff       	jmpq   ffffffff80001641 <interrupt_handler+0xb1>

ffffffff80001870 <outb>:
#include <stdint.h>
#include <stddef.h>

void outb(uint16_t port, uint8_t val)
{
    asm volatile ( "outb %0, %1" : : "a"(val), "Nd"(port) );
ffffffff80001870:	89 f0                	mov    %esi,%eax
ffffffff80001872:	89 fa                	mov    %edi,%edx
ffffffff80001874:	ee                   	out    %al,(%dx)
}
ffffffff80001875:	c3                   	retq   
ffffffff80001876:	66 2e 0f 1f 84 00 00 	nopw   %cs:0x0(%rax,%rax,1)
ffffffff8000187d:	00 00 00 

ffffffff80001880 <inb>:

uint8_t inb(uint16_t port)
{
    uint8_t ret;
    asm volatile ( "inb %1, %0"
ffffffff80001880:	89 fa                	mov    %edi,%edx
ffffffff80001882:	ec                   	in     (%dx),%al
                   : "=a"(ret)
                   : "Nd"(port) );
    return ret;
}
ffffffff80001883:	c3                   	retq   
ffffffff80001884:	66 66 2e 0f 1f 84 00 	data16 nopw %cs:0x0(%rax,%rax,1)
ffffffff8000188b:	00 00 00 00 
ffffffff8000188f:	90                   	nop

ffffffff80001890 <io_wait>:
    asm volatile ( "inb %1, %0"
ffffffff80001890:	e4 80                	in     $0x80,%al

void io_wait()
{
    inb(0x80);
ffffffff80001892:	c3                   	retq   
ffffffff80001893:	66 2e 0f 1f 84 00 00 	nopw   %cs:0x0(%rax,%rax,1)
ffffffff8000189a:	00 00 00 
ffffffff8000189d:	0f 1f 00             	nopl   (%rax)

ffffffff800018a0 <kernel>:
#include <libk/liballoc.h>
#include "./device/serial/stty.h"
#include "./usermode/usermode.h"

void kernel()
{
ffffffff800018a0:	55                   	push   %rbp
    //printf("Kernel Now\n");
    serial_init(0x3F8);     //COM1
ffffffff800018a1:	bf f8 03 00 00       	mov    $0x3f8,%edi
{
ffffffff800018a6:	48 89 e5             	mov    %rsp,%rbp
    serial_init(0x3F8);     //COM1
ffffffff800018a9:	e8 92 f7 ff ff       	callq  ffffffff80001040 <serial_init>
    gdt_init();
ffffffff800018ae:	31 c0                	xor    %eax,%eax
ffffffff800018b0:	e8 1b fa ff ff       	callq  ffffffff800012d0 <gdt_init>
    idt_init();
ffffffff800018b5:	31 c0                	xor    %eax,%eax
ffffffff800018b7:	e8 94 fb ff ff       	callq  ffffffff80001450 <idt_init>
    fb_init();
ffffffff800018bc:	31 c0                	xor    %eax,%eax
ffffffff800018be:	e8 1d f3 ff ff       	callq  ffffffff80000be0 <fb_init>
    console_init();
ffffffff800018c3:	31 c0                	xor    %eax,%eax
ffffffff800018c5:	e8 b6 f1 ff ff       	callq  ffffffff80000a80 <console_init>

    pmm_init();
ffffffff800018ca:	31 c0                	xor    %eax,%eax
ffffffff800018cc:	e8 6f 08 00 00       	callq  ffffffff80002140 <pmm_init>
    vmm_init();
ffffffff800018d1:	31 c0                	xor    %eax,%eax
ffffffff800018d3:	e8 b8 13 00 00       	callq  ffffffff80002c90 <vmm_init>

    user_init();
ffffffff800018d8:	31 c0                	xor    %eax,%eax
ffffffff800018da:	e8 b1 15 00 00       	callq  ffffffff80002e90 <user_init>
    
    printf("Kernel Physical Base Address %x\n", boot_info.tag_kernel_base_address->physical_base_address);
ffffffff800018df:	48 8b 05 42 74 00 00 	mov    0x7442(%rip),%rax        # ffffffff80008d28 <boot_info+0x8>
ffffffff800018e6:	48 c7 c7 48 57 00 80 	mov    $0xffffffff80005748,%rdi
ffffffff800018ed:	48 8b 70 10          	mov    0x10(%rax),%rsi
ffffffff800018f1:	31 c0                	xor    %eax,%eax
ffffffff800018f3:	e8 b8 26 00 00       	callq  ffffffff80003fb0 <printf_>
    printf("Kernel Virtual Base Address  %x\n", boot_info.tag_kernel_base_address->virtual_base_address);
ffffffff800018f8:	48 8b 05 29 74 00 00 	mov    0x7429(%rip),%rax        # ffffffff80008d28 <boot_info+0x8>
ffffffff800018ff:	48 c7 c7 70 57 00 80 	mov    $0xffffffff80005770,%rdi
ffffffff80001906:	48 8b 70 18          	mov    0x18(%rax),%rsi
ffffffff8000190a:	31 c0                	xor    %eax,%eax
ffffffff8000190c:	e8 9f 26 00 00       	callq  ffffffff80003fb0 <printf_>

    printf("PMRS Entries:  %d\n", boot_info.tag_pmrs->entries);
ffffffff80001911:	48 8b 05 50 74 00 00 	mov    0x7450(%rip),%rax        # ffffffff80008d68 <boot_info+0x48>
ffffffff80001918:	48 c7 c7 91 57 00 80 	mov    $0xffffffff80005791,%rdi
ffffffff8000191f:	48 8b 70 10          	mov    0x10(%rax),%rsi
ffffffff80001923:	31 c0                	xor    %eax,%eax
ffffffff80001925:	e8 86 26 00 00       	callq  ffffffff80003fb0 <printf_>

    



    printf("Kernel Done!\n"); 
ffffffff8000192a:	48 c7 c7 a4 57 00 80 	mov    $0xffffffff800057a4,%rdi
ffffffff80001931:	31 c0                	xor    %eax,%eax
ffffffff80001933:	e8 78 26 00 00       	callq  ffffffff80003fb0 <printf_>

    while(true)
ffffffff80001938:	eb fe                	jmp    ffffffff80001938 <kernel+0x98>
ffffffff8000193a:	66 0f 1f 44 00 00    	nopw   0x0(%rax,%rax,1)

ffffffff80001940 <allocate_new_page>:


// ***************************************************************

static struct liballoc_major *allocate_new_page( unsigned int size )
{
ffffffff80001940:	55                   	push   %rbp
	unsigned int st;
	struct liballoc_major *maj;

		// This is how much space is required.
		st  = size + sizeof(struct liballoc_major);
		st += sizeof(struct liballoc_minor);
ffffffff80001941:	83 c7 50             	add    $0x50,%edi

				// Perfect amount of space?
		if ( (st % l_pageSize) == 0 )
ffffffff80001944:	ba 10 00 00 00       	mov    $0x10,%edx
			st  = st / (l_pageSize);
ffffffff80001949:	89 f8                	mov    %edi,%eax
		if ( (st % l_pageSize) == 0 )
ffffffff8000194b:	81 e7 ff 0f 00 00    	and    $0xfff,%edi
			st  = st / (l_pageSize);
ffffffff80001951:	c1 e8 0c             	shr    $0xc,%eax
{
ffffffff80001954:	48 89 e5             	mov    %rsp,%rbp
ffffffff80001957:	53                   	push   %rbx
ffffffff80001958:	48 83 ec 08          	sub    $0x8,%rsp
		else
			st  = st / (l_pageSize) + 1;
ffffffff8000195c:	83 ff 01             	cmp    $0x1,%edi
ffffffff8000195f:	83 d8 ff             	sbb    $0xffffffff,%eax
							// No, add the buffer. 

		
		// Make sure it's >= the minimum size.
		if ( st < l_pageCount ) st = l_pageCount;
ffffffff80001962:	39 d0                	cmp    %edx,%eax
ffffffff80001964:	0f 43 d0             	cmovae %eax,%edx
ffffffff80001967:	89 d7                	mov    %edx,%edi
ffffffff80001969:	48 89 fb             	mov    %rdi,%rbx
		
		maj = (struct liballoc_major*)liballoc_alloc( st );
ffffffff8000196c:	e8 3f 07 00 00       	callq  ffffffff800020b0 <liballoc_alloc>

		if ( maj == NULL ) 
ffffffff80001971:	48 85 c0             	test   %rax,%rax
ffffffff80001974:	74 3a                	je     ffffffff800019b0 <allocate_new_page+0x70>
			return NULL;	// uh oh, we ran out of memory.
		}
		
		maj->prev 	= NULL;
		maj->next 	= NULL;
		maj->pages 	= st;
ffffffff80001976:	89 58 10             	mov    %ebx,0x10(%rax)
		maj->size 	= st * l_pageSize;
ffffffff80001979:	c1 e3 0c             	shl    $0xc,%ebx
		maj->usage 	= sizeof(struct liballoc_major);
		maj->first 	= NULL;

		l_allocated += maj->size;
ffffffff8000197c:	48 01 1d 3d e9 00 00 	add    %rbx,0xe93d(%rip)        # ffffffff800102c0 <l_allocated>
		maj->prev 	= NULL;
ffffffff80001983:	48 c7 00 00 00 00 00 	movq   $0x0,(%rax)
		maj->next 	= NULL;
ffffffff8000198a:	48 c7 40 08 00 00 00 	movq   $0x0,0x8(%rax)
ffffffff80001991:	00 
		maj->size 	= st * l_pageSize;
ffffffff80001992:	89 58 14             	mov    %ebx,0x14(%rax)
		maj->usage 	= sizeof(struct liballoc_major);
ffffffff80001995:	c7 40 18 28 00 00 00 	movl   $0x28,0x18(%rax)
		maj->first 	= NULL;
ffffffff8000199c:	48 c7 40 20 00 00 00 	movq   $0x0,0x20(%rax)
ffffffff800019a3:	00 
		FLUSH();
		#endif
	
		
      return maj;
}
ffffffff800019a4:	48 8b 5d f8          	mov    -0x8(%rbp),%rbx
ffffffff800019a8:	c9                   	leaveq 
ffffffff800019a9:	c3                   	retq   
ffffffff800019aa:	66 0f 1f 44 00 00    	nopw   0x0(%rax,%rax,1)
			l_warningCount += 1;
ffffffff800019b0:	48 83 05 f8 e8 00 00 	addq   $0x1,0xe8f8(%rip)        # ffffffff800102b0 <l_warningCount>
ffffffff800019b7:	01 
			return NULL;	// uh oh, we ran out of memory.
ffffffff800019b8:	eb ea                	jmp    ffffffff800019a4 <allocate_new_page+0x64>
ffffffff800019ba:	66 0f 1f 44 00 00    	nopw   0x0(%rax,%rax,1)

ffffffff800019c0 <kmalloc>:

	


void *PREFIX(malloc)(size_t req_size)
{
ffffffff800019c0:	55                   	push   %rbp
		size += ALIGNMENT + ALIGN_INFO;
	}
				// So, ideally, we really want an alignment of 0 or 1 in order
				// to save space.
	
	liballoc_lock();
ffffffff800019c1:	31 c0                	xor    %eax,%eax
{
ffffffff800019c3:	48 89 e5             	mov    %rsp,%rbp
ffffffff800019c6:	41 57                	push   %r15
ffffffff800019c8:	41 56                	push   %r14
		size += ALIGNMENT + ALIGN_INFO;
ffffffff800019ca:	4c 8d 77 20          	lea    0x20(%rdi),%r14
{
ffffffff800019ce:	41 55                	push   %r13
ffffffff800019d0:	49 89 fd             	mov    %rdi,%r13
ffffffff800019d3:	41 54                	push   %r12
ffffffff800019d5:	53                   	push   %rbx
ffffffff800019d6:	48 83 ec 18          	sub    $0x18,%rsp
	liballoc_lock();
ffffffff800019da:	e8 a1 06 00 00       	callq  ffffffff80002080 <liballoc_lock>

	if ( size == 0 )
ffffffff800019df:	4d 85 f6             	test   %r14,%r14
ffffffff800019e2:	75 22                	jne    ffffffff80001a06 <kmalloc+0x46>
		#if defined DEBUG || defined INFO
		printf( "liballoc: WARNING: alloc( 0 ) called from %x\n",
							__builtin_return_address(0) );
		FLUSH();
		#endif
		liballoc_unlock();
ffffffff800019e4:	31 c0                	xor    %eax,%eax
		l_warningCount += 1;
ffffffff800019e6:	48 83 05 c2 e8 00 00 	addq   $0x1,0xe8c2(%rip)        # ffffffff800102b0 <l_warningCount>
ffffffff800019ed:	01 
		size += ALIGNMENT + ALIGN_INFO;
ffffffff800019ee:	41 be 21 00 00 00    	mov    $0x21,%r14d
		return PREFIX(malloc)(1);
ffffffff800019f4:	41 bd 01 00 00 00    	mov    $0x1,%r13d
		liballoc_unlock();
ffffffff800019fa:	e8 91 06 00 00       	callq  ffffffff80002090 <liballoc_unlock>
	liballoc_lock();
ffffffff800019ff:	31 c0                	xor    %eax,%eax
ffffffff80001a01:	e8 7a 06 00 00       	callq  ffffffff80002080 <liballoc_lock>
	}
	

	if ( l_memRoot == NULL )
ffffffff80001a06:	48 8b 05 c3 e8 00 00 	mov    0xe8c3(%rip),%rax        # ffffffff800102d0 <l_memRoot>
ffffffff80001a0d:	48 85 c0             	test   %rax,%rax
ffffffff80001a10:	0f 84 49 02 00 00    	je     ffffffff80001c5f <kmalloc+0x29f>

	maj = l_memRoot;
	startedBet = 0;
	
	// Start at the best bet....
	if ( l_bestBet != NULL )
ffffffff80001a16:	48 8b 1d ab e8 00 00 	mov    0xe8ab(%rip),%rbx        # ffffffff800102c8 <l_bestBet>
	{
		bestSize = l_bestBet->size - l_bestBet->usage;

		if ( bestSize > (size + sizeof(struct liballoc_minor)))
ffffffff80001a1d:	4d 8d 65 48          	lea    0x48(%r13),%r12
	if ( l_bestBet != NULL )
ffffffff80001a21:	48 85 db             	test   %rbx,%rbx
ffffffff80001a24:	0f 84 ee 01 00 00    	je     ffffffff80001c18 <kmalloc+0x258>
		bestSize = l_bestBet->size - l_bestBet->usage;
ffffffff80001a2a:	8b 53 14             	mov    0x14(%rbx),%edx
ffffffff80001a2d:	8b 4b 18             	mov    0x18(%rbx),%ecx
		{
			maj = l_bestBet;
			startedBet = 1;
ffffffff80001a30:	41 b8 01 00 00 00    	mov    $0x1,%r8d
		bestSize = l_bestBet->size - l_bestBet->usage;
ffffffff80001a36:	41 89 d7             	mov    %edx,%r15d
ffffffff80001a39:	41 29 cf             	sub    %ecx,%r15d
		if ( bestSize > (size + sizeof(struct liballoc_minor)))
ffffffff80001a3c:	4d 39 fc             	cmp    %r15,%r12
ffffffff80001a3f:	0f 83 bb 01 00 00    	jae    ffffffff80001c00 <kmalloc+0x240>
		}
	}
	
	while ( maj != NULL )
	{
		diff  = maj->size - maj->usage;	
ffffffff80001a45:	89 d0                	mov    %edx,%eax
ffffffff80001a47:	29 c8                	sub    %ecx,%eax
										// free memory in the block

		if ( bestSize < diff )
ffffffff80001a49:	49 39 c7             	cmp    %rax,%r15
ffffffff80001a4c:	73 0a                	jae    ffffffff80001a58 <kmalloc+0x98>
		{
			// Hmm.. this one has more memory then our bestBet. Remember!
			l_bestBet = maj;
ffffffff80001a4e:	48 89 1d 73 e8 00 00 	mov    %rbx,0xe873(%rip)        # ffffffff800102c8 <l_bestBet>
ffffffff80001a55:	49 89 c7             	mov    %rax,%r15
		
		
#ifdef USE_CASE1
			
		// CASE 1:  There is not enough space in this major block.
		if ( diff < (size + sizeof( struct liballoc_minor )) )
ffffffff80001a58:	4c 39 e0             	cmp    %r12,%rax
ffffffff80001a5b:	73 24                	jae    ffffffff80001a81 <kmalloc+0xc1>
			printf( "CASE 1: Insufficient space in block %x\n", maj);
			FLUSH();
			#endif
				
				// Another major block next to this one?
			if ( maj->next != NULL ) 
ffffffff80001a5d:	48 8b 43 08          	mov    0x8(%rbx),%rax
ffffffff80001a61:	48 85 c0             	test   %rax,%rax
ffffffff80001a64:	0f 84 26 01 00 00    	je     ffffffff80001b90 <kmalloc+0x1d0>
		diff  = maj->size - maj->usage;	
ffffffff80001a6a:	8b 50 14             	mov    0x14(%rax),%edx
ffffffff80001a6d:	8b 48 18             	mov    0x18(%rax),%ecx
ffffffff80001a70:	48 89 c3             	mov    %rax,%rbx
ffffffff80001a73:	89 d0                	mov    %edx,%eax
ffffffff80001a75:	29 c8                	sub    %ecx,%eax
		if ( bestSize < diff )
ffffffff80001a77:	49 39 c7             	cmp    %rax,%r15
ffffffff80001a7a:	72 d2                	jb     ffffffff80001a4e <kmalloc+0x8e>
		if ( diff < (size + sizeof( struct liballoc_minor )) )
ffffffff80001a7c:	4c 39 e0             	cmp    %r12,%rax
ffffffff80001a7f:	72 dc                	jb     ffffffff80001a5d <kmalloc+0x9d>
#endif

#ifdef USE_CASE2
		
		// CASE 2: It's a brand new block.
		if ( maj->first == NULL )
ffffffff80001a81:	48 8b 43 20          	mov    0x20(%rbx),%rax
ffffffff80001a85:	48 85 c0             	test   %rax,%rax
ffffffff80001a88:	0f 84 f7 01 00 00    	je     ffffffff80001c85 <kmalloc+0x2c5>
				
#ifdef USE_CASE3

		// CASE 3: Block in use and enough space at the start of the block.
		diff =  (uintptr_t)(maj->first);
		diff -= (uintptr_t)maj;
ffffffff80001a8e:	48 89 c2             	mov    %rax,%rdx
ffffffff80001a91:	48 29 da             	sub    %rbx,%rdx
		diff -= sizeof(struct liballoc_major);
ffffffff80001a94:	48 83 ea 28          	sub    $0x28,%rdx

		if ( diff >= (size + sizeof(struct liballoc_minor)) )
ffffffff80001a98:	4c 39 e2             	cmp    %r12,%rdx
ffffffff80001a9b:	0f 83 40 02 00 00    	jae    ffffffff80001ce1 <kmalloc+0x321>
ffffffff80001aa1:	0f 1f 80 00 00 00 00 	nopl   0x0(%rax)
		
			// Looping within the block now...
		while ( min != NULL )
		{
				// CASE 4.1: End of minors in a block. Space from last and end?
				if ( min->next == NULL )
ffffffff80001aa8:	48 89 c1             	mov    %rax,%rcx
ffffffff80001aab:	48 8b 40 08          	mov    0x8(%rax),%rax
				{
					// the rest of this block is free...  is it big enough?
					diff = (uintptr_t)(maj) + maj->size;
					diff -= (uintptr_t)min;
					diff -= sizeof( struct liballoc_minor );
					diff -= min->size; 
ffffffff80001aaf:	8b 71 1c             	mov    0x1c(%rcx),%esi
				if ( min->next == NULL )
ffffffff80001ab2:	48 85 c0             	test   %rax,%rax
ffffffff80001ab5:	0f 84 85 00 00 00    	je     ffffffff80001b40 <kmalloc+0x180>
				// CASE 4.2: Is there space between two minors?
				if ( min->next != NULL )
				{
					// is the difference between here and next big enough?
					diff  = (uintptr_t)(min->next);
					diff -= (uintptr_t)min;
ffffffff80001abb:	48 89 c2             	mov    %rax,%rdx
ffffffff80001abe:	48 29 ca             	sub    %rcx,%rdx
					diff -= sizeof( struct liballoc_minor );
ffffffff80001ac1:	48 83 ea 28          	sub    $0x28,%rdx
					diff -= min->size;
ffffffff80001ac5:	48 29 f2             	sub    %rsi,%rdx
										// minus our existing usage.

					if ( diff >= (size + sizeof( struct liballoc_minor )) )
ffffffff80001ac8:	4c 39 e2             	cmp    %r12,%rdx
ffffffff80001acb:	72 db                	jb     ffffffff80001aa8 <kmalloc+0xe8>
					{
						// yay......
						new_min = (struct liballoc_minor*)((uintptr_t)min + sizeof( struct liballoc_minor ) + min->size);
ffffffff80001acd:	48 01 ce             	add    %rcx,%rsi

						new_min->magic = LIBALLOC_MAGIC;
						new_min->next = min->next;
ffffffff80001ad0:	48 89 46 30          	mov    %rax,0x30(%rsi)
						new_min->prev = min;
						new_min->size = size;
						new_min->req_size = req_size;
						new_min->block = maj;
						min->next->prev = new_min;
ffffffff80001ad4:	48 8b 41 08          	mov    0x8(%rcx),%rax
						new_min = (struct liballoc_minor*)((uintptr_t)min + sizeof( struct liballoc_minor ) + min->size);
ffffffff80001ad8:	48 8d 56 28          	lea    0x28(%rsi),%rdx
						new_min->magic = LIBALLOC_MAGIC;
ffffffff80001adc:	c7 46 40 de c0 01 c0 	movl   $0xc001c0de,0x40(%rsi)
						new_min->prev = min;
ffffffff80001ae3:	48 89 4e 28          	mov    %rcx,0x28(%rsi)
						new_min->size = size;
ffffffff80001ae7:	44 89 76 44          	mov    %r14d,0x44(%rsi)
						new_min->req_size = req_size;
ffffffff80001aeb:	44 89 6e 48          	mov    %r13d,0x48(%rsi)
						new_min->block = maj;
ffffffff80001aef:	48 89 5e 38          	mov    %rbx,0x38(%rsi)
						min->next->prev = new_min;
ffffffff80001af3:	48 89 10             	mov    %rdx,(%rax)
						min->next = new_min;
ffffffff80001af6:	48 89 51 08          	mov    %rdx,0x8(%rcx)
						maj->usage += size + sizeof( struct liballoc_minor );
ffffffff80001afa:	41 8d 46 28          	lea    0x28(%r14),%eax
						
						l_inuse += size;
ffffffff80001afe:	4c 01 35 b3 e7 00 00 	add    %r14,0xe7b3(%rip)        # ffffffff800102b8 <l_inuse>
						
						p = (void*)((uintptr_t)new_min + sizeof( struct liballoc_minor ));
						ALIGN( p );
ffffffff80001b05:	48 8d 56 60          	lea    0x60(%rsi),%rdx
						maj->usage += size + sizeof( struct liballoc_minor );
ffffffff80001b09:	01 43 18             	add    %eax,0x18(%rbx)
						ALIGN( p );
ffffffff80001b0c:	83 e6 0f             	and    $0xf,%esi
ffffffff80001b0f:	0f 85 cb 00 00 00    	jne    ffffffff80001be0 <kmalloc+0x220>
ffffffff80001b15:	48 89 d3             	mov    %rdx,%rbx
ffffffff80001b18:	b8 10 00 00 00       	mov    $0x10,%eax
ffffffff80001b1d:	88 42 f0             	mov    %al,-0x10(%rdx)
						#ifdef DEBUG
						printf( "CASE 4.2: returning %x\n", p); 
						FLUSH();
						#endif
						
						liballoc_unlock();		// release the lock
ffffffff80001b20:	31 c0                	xor    %eax,%eax
ffffffff80001b22:	e8 69 05 00 00       	callq  ffffffff80002090 <liballoc_unlock>
	printf( "liballoc: WARNING: PREFIX(malloc)( %i ) returning NULL.\n", size);
	liballoc_dump();
	FLUSH();
	#endif
	return NULL;
}
ffffffff80001b27:	48 83 c4 18          	add    $0x18,%rsp
ffffffff80001b2b:	48 89 d8             	mov    %rbx,%rax
ffffffff80001b2e:	5b                   	pop    %rbx
ffffffff80001b2f:	41 5c                	pop    %r12
ffffffff80001b31:	41 5d                	pop    %r13
ffffffff80001b33:	41 5e                	pop    %r14
ffffffff80001b35:	41 5f                	pop    %r15
ffffffff80001b37:	5d                   	pop    %rbp
ffffffff80001b38:	c3                   	retq   
ffffffff80001b39:	0f 1f 80 00 00 00 00 	nopl   0x0(%rax)
					diff = (uintptr_t)(maj) + maj->size;
ffffffff80001b40:	8b 43 14             	mov    0x14(%rbx),%eax
					diff -= sizeof( struct liballoc_minor );
ffffffff80001b43:	48 8d 44 03 d8       	lea    -0x28(%rbx,%rax,1),%rax
ffffffff80001b48:	48 29 c8             	sub    %rcx,%rax
					diff -= min->size; 
ffffffff80001b4b:	48 29 f0             	sub    %rsi,%rax
					if ( diff >= (size + sizeof( struct liballoc_minor )) )
ffffffff80001b4e:	4c 39 e0             	cmp    %r12,%rax
ffffffff80001b51:	0f 83 d9 00 00 00    	jae    ffffffff80001c30 <kmalloc+0x270>
		if ( maj->next == NULL ) 
ffffffff80001b57:	48 8b 43 08          	mov    0x8(%rbx),%rax
ffffffff80001b5b:	48 85 c0             	test   %rax,%rax
ffffffff80001b5e:	0f 85 06 ff ff ff    	jne    ffffffff80001a6a <kmalloc+0xaa>
			if ( startedBet == 1 )
ffffffff80001b64:	41 83 f8 01          	cmp    $0x1,%r8d
ffffffff80001b68:	74 2c                	je     ffffffff80001b96 <kmalloc+0x1d6>
			maj->next = allocate_new_page( size );		// next one guaranteed to be okay
ffffffff80001b6a:	44 89 f7             	mov    %r14d,%edi
ffffffff80001b6d:	44 89 45 cc          	mov    %r8d,-0x34(%rbp)
ffffffff80001b71:	e8 ca fd ff ff       	callq  ffffffff80001940 <allocate_new_page>
ffffffff80001b76:	48 89 43 08          	mov    %rax,0x8(%rbx)
			if ( maj->next == NULL ) break;			//  uh oh,  no more memory.....
ffffffff80001b7a:	48 85 c0             	test   %rax,%rax
ffffffff80001b7d:	0f 84 f4 00 00 00    	je     ffffffff80001c77 <kmalloc+0x2b7>
			maj->next->prev = maj;
ffffffff80001b83:	48 89 18             	mov    %rbx,(%rax)
	while ( maj != NULL )
ffffffff80001b86:	44 8b 45 cc          	mov    -0x34(%rbp),%r8d
ffffffff80001b8a:	e9 db fe ff ff       	jmpq   ffffffff80001a6a <kmalloc+0xaa>
ffffffff80001b8f:	90                   	nop
			if ( startedBet == 1 )		// If we started at the best bet,
ffffffff80001b90:	41 83 f8 01          	cmp    $0x1,%r8d
ffffffff80001b94:	75 1a                	jne    ffffffff80001bb0 <kmalloc+0x1f0>
				maj = l_memRoot;
ffffffff80001b96:	48 8b 05 33 e7 00 00 	mov    0xe733(%rip),%rax        # ffffffff800102d0 <l_memRoot>
	while ( maj != NULL )
ffffffff80001b9d:	48 85 c0             	test   %rax,%rax
ffffffff80001ba0:	0f 84 d1 00 00 00    	je     ffffffff80001c77 <kmalloc+0x2b7>
ffffffff80001ba6:	45 31 c0             	xor    %r8d,%r8d
ffffffff80001ba9:	e9 bc fe ff ff       	jmpq   ffffffff80001a6a <kmalloc+0xaa>
ffffffff80001bae:	66 90                	xchg   %ax,%ax
			maj->next = allocate_new_page( size );	// next one will be okay.
ffffffff80001bb0:	44 89 f7             	mov    %r14d,%edi
ffffffff80001bb3:	44 89 45 cc          	mov    %r8d,-0x34(%rbp)
ffffffff80001bb7:	e8 84 fd ff ff       	callq  ffffffff80001940 <allocate_new_page>
ffffffff80001bbc:	48 89 43 08          	mov    %rax,0x8(%rbx)
			if ( maj->next == NULL ) break;			// no more memory.
ffffffff80001bc0:	48 85 c0             	test   %rax,%rax
ffffffff80001bc3:	0f 84 ae 00 00 00    	je     ffffffff80001c77 <kmalloc+0x2b7>
			maj->next->prev = maj;
ffffffff80001bc9:	48 89 18             	mov    %rbx,(%rax)
ffffffff80001bcc:	44 8b 45 cc          	mov    -0x34(%rbp),%r8d
ffffffff80001bd0:	48 89 c3             	mov    %rax,%rbx
ffffffff80001bd3:	e9 a9 fe ff ff       	jmpq   ffffffff80001a81 <kmalloc+0xc1>
ffffffff80001bd8:	0f 1f 84 00 00 00 00 	nopl   0x0(%rax,%rax,1)
ffffffff80001bdf:	00 
						ALIGN( p );
ffffffff80001be0:	b8 10 00 00 00       	mov    $0x10,%eax
ffffffff80001be5:	48 29 f0             	sub    %rsi,%rax
ffffffff80001be8:	48 01 c2             	add    %rax,%rdx
ffffffff80001beb:	83 c0 10             	add    $0x10,%eax
ffffffff80001bee:	48 89 d3             	mov    %rdx,%rbx
ffffffff80001bf1:	e9 27 ff ff ff       	jmpq   ffffffff80001b1d <kmalloc+0x15d>
ffffffff80001bf6:	66 2e 0f 1f 84 00 00 	nopw   %cs:0x0(%rax,%rax,1)
ffffffff80001bfd:	00 00 00 
		diff  = maj->size - maj->usage;	
ffffffff80001c00:	8b 50 14             	mov    0x14(%rax),%edx
ffffffff80001c03:	8b 48 18             	mov    0x18(%rax),%ecx
	maj = l_memRoot;
ffffffff80001c06:	48 89 c3             	mov    %rax,%rbx
		diff  = maj->size - maj->usage;	
ffffffff80001c09:	45 31 c0             	xor    %r8d,%r8d
ffffffff80001c0c:	e9 34 fe ff ff       	jmpq   ffffffff80001a45 <kmalloc+0x85>
ffffffff80001c11:	0f 1f 80 00 00 00 00 	nopl   0x0(%rax)
ffffffff80001c18:	8b 50 14             	mov    0x14(%rax),%edx
ffffffff80001c1b:	8b 48 18             	mov    0x18(%rax),%ecx
	maj = l_memRoot;
ffffffff80001c1e:	48 89 c3             	mov    %rax,%rbx
	unsigned long long bestSize = 0;
ffffffff80001c21:	45 31 ff             	xor    %r15d,%r15d
		diff  = maj->size - maj->usage;	
ffffffff80001c24:	45 31 c0             	xor    %r8d,%r8d
ffffffff80001c27:	e9 19 fe ff ff       	jmpq   ffffffff80001a45 <kmalloc+0x85>
ffffffff80001c2c:	0f 1f 40 00          	nopl   0x0(%rax)
						min->next = (struct liballoc_minor*)((uintptr_t)min + sizeof( struct liballoc_minor ) + min->size);
ffffffff80001c30:	48 01 ce             	add    %rcx,%rsi
ffffffff80001c33:	48 8d 46 28          	lea    0x28(%rsi),%rax
ffffffff80001c37:	48 89 41 08          	mov    %rax,0x8(%rcx)
						min->next->prev = min;
ffffffff80001c3b:	48 89 4e 28          	mov    %rcx,0x28(%rsi)
						min->next = NULL;
ffffffff80001c3f:	48 c7 46 30 00 00 00 	movq   $0x0,0x30(%rsi)
ffffffff80001c46:	00 
						min->magic = LIBALLOC_MAGIC;
ffffffff80001c47:	c7 46 40 de c0 01 c0 	movl   $0xc001c0de,0x40(%rsi)
						min->block = maj;
ffffffff80001c4e:	48 89 5e 38          	mov    %rbx,0x38(%rsi)
						min->size = size;
ffffffff80001c52:	44 89 76 44          	mov    %r14d,0x44(%rsi)
						min->req_size = req_size;
ffffffff80001c56:	44 89 6e 48          	mov    %r13d,0x48(%rsi)
						maj->usage += size + sizeof( struct liballoc_minor );
ffffffff80001c5a:	e9 9b fe ff ff       	jmpq   ffffffff80001afa <kmalloc+0x13a>
		l_memRoot = allocate_new_page( size );
ffffffff80001c5f:	44 89 f7             	mov    %r14d,%edi
ffffffff80001c62:	e8 d9 fc ff ff       	callq  ffffffff80001940 <allocate_new_page>
ffffffff80001c67:	48 89 05 62 e6 00 00 	mov    %rax,0xe662(%rip)        # ffffffff800102d0 <l_memRoot>
		if ( l_memRoot == NULL )
ffffffff80001c6e:	48 85 c0             	test   %rax,%rax
ffffffff80001c71:	0f 85 9f fd ff ff    	jne    ffffffff80001a16 <kmalloc+0x56>
		  liballoc_unlock();
ffffffff80001c77:	31 c0                	xor    %eax,%eax
		  return NULL;
ffffffff80001c79:	31 db                	xor    %ebx,%ebx
		  liballoc_unlock();
ffffffff80001c7b:	e8 10 04 00 00       	callq  ffffffff80002090 <liballoc_unlock>
		  return NULL;
ffffffff80001c80:	e9 a2 fe ff ff       	jmpq   ffffffff80001b27 <kmalloc+0x167>
			maj->first = (struct liballoc_minor*)((uintptr_t)maj + sizeof(struct liballoc_major) );
ffffffff80001c85:	48 8d 43 28          	lea    0x28(%rbx),%rax
			maj->first->magic 		= LIBALLOC_MAGIC;
ffffffff80001c89:	c7 43 40 de c0 01 c0 	movl   $0xc001c0de,0x40(%rbx)
			maj->first = (struct liballoc_minor*)((uintptr_t)maj + sizeof(struct liballoc_major) );
ffffffff80001c90:	48 89 43 20          	mov    %rax,0x20(%rbx)
			maj->first->prev 		= NULL;
ffffffff80001c94:	48 c7 43 28 00 00 00 	movq   $0x0,0x28(%rbx)
ffffffff80001c9b:	00 
			maj->first->next 		= NULL;
ffffffff80001c9c:	48 c7 43 30 00 00 00 	movq   $0x0,0x30(%rbx)
ffffffff80001ca3:	00 
			maj->first->block 	= maj;
ffffffff80001ca4:	48 89 5b 38          	mov    %rbx,0x38(%rbx)
			maj->usage 			+= size + sizeof( struct liballoc_minor );
ffffffff80001ca8:	41 8d 46 28          	lea    0x28(%r14),%eax
			ALIGN( p );
ffffffff80001cac:	48 8d 53 60          	lea    0x60(%rbx),%rdx
			maj->first->size 	= size;
ffffffff80001cb0:	44 89 73 44          	mov    %r14d,0x44(%rbx)
			maj->first->req_size 	= req_size;
ffffffff80001cb4:	44 89 6b 48          	mov    %r13d,0x48(%rbx)
			maj->usage 			+= size + sizeof( struct liballoc_minor );
ffffffff80001cb8:	01 43 18             	add    %eax,0x18(%rbx)
			l_inuse += size;
ffffffff80001cbb:	4c 01 35 f6 e5 00 00 	add    %r14,0xe5f6(%rip)        # ffffffff800102b8 <l_inuse>
			ALIGN( p );
ffffffff80001cc2:	83 e3 0f             	and    $0xf,%ebx
ffffffff80001cc5:	0f 84 4a fe ff ff    	je     ffffffff80001b15 <kmalloc+0x155>
ffffffff80001ccb:	b8 10 00 00 00       	mov    $0x10,%eax
ffffffff80001cd0:	48 29 d8             	sub    %rbx,%rax
ffffffff80001cd3:	48 01 c2             	add    %rax,%rdx
ffffffff80001cd6:	83 c0 10             	add    $0x10,%eax
ffffffff80001cd9:	48 89 d3             	mov    %rdx,%rbx
ffffffff80001cdc:	e9 3c fe ff ff       	jmpq   ffffffff80001b1d <kmalloc+0x15d>
			maj->first->prev = (struct liballoc_minor*)((uintptr_t)maj + sizeof(struct liballoc_major) );
ffffffff80001ce1:	48 8d 53 28          	lea    0x28(%rbx),%rdx
ffffffff80001ce5:	48 89 10             	mov    %rdx,(%rax)
			maj->first->prev->next = maj->first;
ffffffff80001ce8:	48 89 43 30          	mov    %rax,0x30(%rbx)
			maj->first = maj->first->prev;
ffffffff80001cec:	48 89 53 20          	mov    %rdx,0x20(%rbx)
			maj->first->magic 	= LIBALLOC_MAGIC;
ffffffff80001cf0:	c7 43 40 de c0 01 c0 	movl   $0xc001c0de,0x40(%rbx)
			maj->first->prev 	= NULL;
ffffffff80001cf7:	48 c7 43 28 00 00 00 	movq   $0x0,0x28(%rbx)
ffffffff80001cfe:	00 
ffffffff80001cff:	eb a3                	jmp    ffffffff80001ca4 <kmalloc+0x2e4>
ffffffff80001d01:	66 66 2e 0f 1f 84 00 	data16 nopw %cs:0x0(%rax,%rax,1)
ffffffff80001d08:	00 00 00 00 
ffffffff80001d0c:	0f 1f 40 00          	nopl   0x0(%rax)

ffffffff80001d10 <kfree>:
void PREFIX(free)(void *ptr)
{
	struct liballoc_minor *min;
	struct liballoc_major *maj;

	if ( ptr == NULL ) 
ffffffff80001d10:	48 85 ff             	test   %rdi,%rdi
ffffffff80001d13:	0f 84 5f 01 00 00    	je     ffffffff80001e78 <kfree+0x168>
{
ffffffff80001d19:	55                   	push   %rbp
		FLUSH();
		#endif
		return;
	}

	UNALIGN( ptr );
ffffffff80001d1a:	48 89 f8             	mov    %rdi,%rax
{
ffffffff80001d1d:	48 89 e5             	mov    %rsp,%rbp
ffffffff80001d20:	53                   	push   %rbx
	UNALIGN( ptr );
ffffffff80001d21:	48 89 fb             	mov    %rdi,%rbx
{
ffffffff80001d24:	48 83 ec 08          	sub    $0x8,%rsp
	UNALIGN( ptr );
ffffffff80001d28:	48 0f be 57 f0       	movsbq -0x10(%rdi),%rdx
ffffffff80001d2d:	48 29 d0             	sub    %rdx,%rax
ffffffff80001d30:	48 83 fa 20          	cmp    $0x20,%rdx
ffffffff80001d34:	48 0f 42 d8          	cmovb  %rax,%rbx

	liballoc_lock();		// lockit
ffffffff80001d38:	31 c0                	xor    %eax,%eax
ffffffff80001d3a:	e8 41 03 00 00       	callq  ffffffff80002080 <liballoc_lock>


	min = (struct liballoc_minor*)((uintptr_t)ptr - sizeof( struct liballoc_minor ));

	
	if ( min->magic != LIBALLOC_MAGIC ) 
ffffffff80001d3f:	8b 53 f0             	mov    -0x10(%rbx),%edx
	min = (struct liballoc_minor*)((uintptr_t)ptr - sizeof( struct liballoc_minor ));
ffffffff80001d42:	48 8d 43 d8          	lea    -0x28(%rbx),%rax
	if ( min->magic != LIBALLOC_MAGIC ) 
ffffffff80001d46:	81 fa de c0 01 c0    	cmp    $0xc001c0de,%edx
ffffffff80001d4c:	0f 85 86 00 00 00    	jne    ffffffff80001dd8 <kfree+0xc8>
	#endif
	

		maj = min->block;

		l_inuse -= min->size;
ffffffff80001d52:	8b 50 1c             	mov    0x1c(%rax),%edx
		maj = min->block;
ffffffff80001d55:	48 8b 78 10          	mov    0x10(%rax),%rdi
		l_inuse -= min->size;
ffffffff80001d59:	48 29 15 58 e5 00 00 	sub    %rdx,0xe558(%rip)        # ffffffff800102b8 <l_inuse>
ffffffff80001d60:	48 89 d1             	mov    %rdx,%rcx

		maj->usage -= (min->size + sizeof( struct liballoc_minor ));
ffffffff80001d63:	8b 57 18             	mov    0x18(%rdi),%edx
ffffffff80001d66:	29 ca                	sub    %ecx,%edx
		min->magic  = LIBALLOC_DEAD;		// No mojo.

		if ( min->next != NULL ) min->next->prev = min->prev;
ffffffff80001d68:	48 8b 48 08          	mov    0x8(%rax),%rcx
		maj->usage -= (min->size + sizeof( struct liballoc_minor ));
ffffffff80001d6c:	83 ea 28             	sub    $0x28,%edx
ffffffff80001d6f:	89 57 18             	mov    %edx,0x18(%rdi)
		min->magic  = LIBALLOC_DEAD;		// No mojo.
ffffffff80001d72:	c7 40 18 ad de ad de 	movl   $0xdeaddead,0x18(%rax)
		if ( min->next != NULL ) min->next->prev = min->prev;
ffffffff80001d79:	48 85 c9             	test   %rcx,%rcx
ffffffff80001d7c:	0f 84 8e 00 00 00    	je     ffffffff80001e10 <kfree+0x100>
ffffffff80001d82:	48 8b 30             	mov    (%rax),%rsi
ffffffff80001d85:	48 89 31             	mov    %rsi,(%rcx)
		if ( min->prev != NULL ) min->prev->next = min->next;
ffffffff80001d88:	48 8b 00             	mov    (%rax),%rax
ffffffff80001d8b:	48 85 c0             	test   %rax,%rax
ffffffff80001d8e:	0f 84 f4 00 00 00    	je     ffffffff80001e88 <kfree+0x178>
							// minor.


	// We need to clean up after the majors now....

	if ( maj->first == NULL )	// Block completely unused.
ffffffff80001d94:	48 83 7f 20 00       	cmpq   $0x0,0x20(%rdi)
		if ( min->prev != NULL ) min->prev->next = min->next;
ffffffff80001d99:	48 89 48 08          	mov    %rcx,0x8(%rax)
	{
		if ( l_memRoot == maj ) l_memRoot = maj->next;
		if ( l_bestBet == maj ) l_bestBet = NULL;
ffffffff80001d9d:	48 8b 05 24 e5 00 00 	mov    0xe524(%rip),%rax        # ffffffff800102c8 <l_bestBet>
	if ( maj->first == NULL )	// Block completely unused.
ffffffff80001da4:	0f 84 81 00 00 00    	je     ffffffff80001e2b <kfree+0x11b>

		liballoc_free( maj, maj->pages );
	}
	else
	{
		if ( l_bestBet != NULL )
ffffffff80001daa:	48 85 c0             	test   %rax,%rax
ffffffff80001dad:	74 16                	je     ffffffff80001dc5 <kfree+0xb5>
		{
			int bestSize = l_bestBet->size  - l_bestBet->usage;
ffffffff80001daf:	8b 48 14             	mov    0x14(%rax),%ecx
ffffffff80001db2:	2b 48 18             	sub    0x18(%rax),%ecx
			int majSize = maj->size - maj->usage;
ffffffff80001db5:	8b 47 14             	mov    0x14(%rdi),%eax
ffffffff80001db8:	29 d0                	sub    %edx,%eax

			if ( majSize > bestSize ) l_bestBet = maj;
ffffffff80001dba:	39 c1                	cmp    %eax,%ecx
ffffffff80001dbc:	7d 07                	jge    ffffffff80001dc5 <kfree+0xb5>
ffffffff80001dbe:	48 89 3d 03 e5 00 00 	mov    %rdi,0xe503(%rip)        # ffffffff800102c8 <l_bestBet>
	printf( "OK\n");
	FLUSH();
	#endif
	
	liballoc_unlock();		// release the lock
}
ffffffff80001dc5:	48 8b 5d f8          	mov    -0x8(%rbp),%rbx
		liballoc_unlock();		// release the lock
ffffffff80001dc9:	31 c0                	xor    %eax,%eax
}
ffffffff80001dcb:	c9                   	leaveq 
		liballoc_unlock();		// release the lock
ffffffff80001dcc:	e9 bf 02 00 00       	jmpq   ffffffff80002090 <liballoc_unlock>
ffffffff80001dd1:	0f 1f 80 00 00 00 00 	nopl   0x0(%rax)
			((min->magic & 0xFFFFFF) == (LIBALLOC_MAGIC & 0xFFFFFF)) || 
ffffffff80001dd8:	89 d0                	mov    %edx,%eax
		l_errorCount += 1;
ffffffff80001dda:	48 83 05 c6 e4 00 00 	addq   $0x1,0xe4c6(%rip)        # ffffffff800102a8 <l_errorCount>
ffffffff80001de1:	01 
			((min->magic & 0xFFFFFF) == (LIBALLOC_MAGIC & 0xFFFFFF)) || 
ffffffff80001de2:	25 ff ff ff 00       	and    $0xffffff,%eax
		if ( 
ffffffff80001de7:	3d de c0 01 00       	cmp    $0x1c0de,%eax
ffffffff80001dec:	74 0c                	je     ffffffff80001dfa <kfree+0xea>
			((min->magic & 0xFFFFFF) == (LIBALLOC_MAGIC & 0xFFFFFF)) || 
ffffffff80001dee:	66 81 fa de c0       	cmp    $0xc0de,%dx
ffffffff80001df3:	74 05                	je     ffffffff80001dfa <kfree+0xea>
			((min->magic & 0xFFFF) == (LIBALLOC_MAGIC & 0xFFFF)) || 
ffffffff80001df5:	80 fa de             	cmp    $0xde,%dl
ffffffff80001df8:	75 cb                	jne    ffffffff80001dc5 <kfree+0xb5>
			l_possibleOverruns += 1;
ffffffff80001dfa:	48 83 05 9e e4 00 00 	addq   $0x1,0xe49e(%rip)        # ffffffff800102a0 <l_possibleOverruns>
ffffffff80001e01:	01 
}
ffffffff80001e02:	48 8b 5d f8          	mov    -0x8(%rbp),%rbx
		liballoc_unlock();		// release the lock
ffffffff80001e06:	31 c0                	xor    %eax,%eax
}
ffffffff80001e08:	c9                   	leaveq 
		liballoc_unlock();		// release the lock
ffffffff80001e09:	e9 82 02 00 00       	jmpq   ffffffff80002090 <liballoc_unlock>
ffffffff80001e0e:	66 90                	xchg   %ax,%ax
		if ( min->prev != NULL ) min->prev->next = min->next;
ffffffff80001e10:	48 8b 00             	mov    (%rax),%rax
ffffffff80001e13:	48 85 c0             	test   %rax,%rax
ffffffff80001e16:	0f 85 78 ff ff ff    	jne    ffffffff80001d94 <kfree+0x84>
		if ( min->prev == NULL ) maj->first = min->next;	
ffffffff80001e1c:	48 c7 47 20 00 00 00 	movq   $0x0,0x20(%rdi)
ffffffff80001e23:	00 
		if ( l_bestBet == maj ) l_bestBet = NULL;
ffffffff80001e24:	48 8b 05 9d e4 00 00 	mov    0xe49d(%rip),%rax        # ffffffff800102c8 <l_bestBet>
		if ( l_memRoot == maj ) l_memRoot = maj->next;
ffffffff80001e2b:	48 39 3d 9e e4 00 00 	cmp    %rdi,0xe49e(%rip)        # ffffffff800102d0 <l_memRoot>
ffffffff80001e32:	48 8b 57 08          	mov    0x8(%rdi),%rdx
ffffffff80001e36:	74 78                	je     ffffffff80001eb0 <kfree+0x1a0>
		if ( l_bestBet == maj ) l_bestBet = NULL;
ffffffff80001e38:	48 39 f8             	cmp    %rdi,%rax
ffffffff80001e3b:	74 63                	je     ffffffff80001ea0 <kfree+0x190>
		if ( maj->prev != NULL ) maj->prev->next = maj->next;
ffffffff80001e3d:	48 8b 07             	mov    (%rdi),%rax
ffffffff80001e40:	48 85 c0             	test   %rax,%rax
ffffffff80001e43:	74 08                	je     ffffffff80001e4d <kfree+0x13d>
ffffffff80001e45:	48 89 50 08          	mov    %rdx,0x8(%rax)
		if ( maj->next != NULL ) maj->next->prev = maj->prev;
ffffffff80001e49:	48 8b 57 08          	mov    0x8(%rdi),%rdx
ffffffff80001e4d:	48 85 d2             	test   %rdx,%rdx
ffffffff80001e50:	74 03                	je     ffffffff80001e55 <kfree+0x145>
ffffffff80001e52:	48 89 02             	mov    %rax,(%rdx)
		liballoc_free( maj, maj->pages );
ffffffff80001e55:	8b 77 10             	mov    0x10(%rdi),%esi
		l_allocated -= maj->size;
ffffffff80001e58:	8b 47 14             	mov    0x14(%rdi),%eax
ffffffff80001e5b:	48 29 05 5e e4 00 00 	sub    %rax,0xe45e(%rip)        # ffffffff800102c0 <l_allocated>
		liballoc_free( maj, maj->pages );
ffffffff80001e62:	e8 39 02 00 00       	callq  ffffffff800020a0 <liballoc_free>
}
ffffffff80001e67:	48 8b 5d f8          	mov    -0x8(%rbp),%rbx
		liballoc_unlock();		// release the lock
ffffffff80001e6b:	31 c0                	xor    %eax,%eax
}
ffffffff80001e6d:	c9                   	leaveq 
		liballoc_unlock();		// release the lock
ffffffff80001e6e:	e9 1d 02 00 00       	jmpq   ffffffff80002090 <liballoc_unlock>
ffffffff80001e73:	0f 1f 44 00 00       	nopl   0x0(%rax,%rax,1)
		l_warningCount += 1;
ffffffff80001e78:	48 83 05 30 e4 00 00 	addq   $0x1,0xe430(%rip)        # ffffffff800102b0 <l_warningCount>
ffffffff80001e7f:	01 
		return;
ffffffff80001e80:	c3                   	retq   
ffffffff80001e81:	0f 1f 80 00 00 00 00 	nopl   0x0(%rax)
		if ( min->prev == NULL ) maj->first = min->next;	
ffffffff80001e88:	48 89 4f 20          	mov    %rcx,0x20(%rdi)
		if ( l_bestBet == maj ) l_bestBet = NULL;
ffffffff80001e8c:	48 8b 05 35 e4 00 00 	mov    0xe435(%rip),%rax        # ffffffff800102c8 <l_bestBet>
ffffffff80001e93:	e9 12 ff ff ff       	jmpq   ffffffff80001daa <kfree+0x9a>
ffffffff80001e98:	0f 1f 84 00 00 00 00 	nopl   0x0(%rax,%rax,1)
ffffffff80001e9f:	00 
ffffffff80001ea0:	48 c7 05 1d e4 00 00 	movq   $0x0,0xe41d(%rip)        # ffffffff800102c8 <l_bestBet>
ffffffff80001ea7:	00 00 00 00 
ffffffff80001eab:	eb 90                	jmp    ffffffff80001e3d <kfree+0x12d>
ffffffff80001ead:	0f 1f 00             	nopl   (%rax)
		if ( l_memRoot == maj ) l_memRoot = maj->next;
ffffffff80001eb0:	48 89 15 19 e4 00 00 	mov    %rdx,0xe419(%rip)        # ffffffff800102d0 <l_memRoot>
ffffffff80001eb7:	e9 7c ff ff ff       	jmpq   ffffffff80001e38 <kfree+0x128>
ffffffff80001ebc:	0f 1f 40 00          	nopl   0x0(%rax)

ffffffff80001ec0 <kcalloc>:




void* PREFIX(calloc)(size_t nobj, size_t size)
{
ffffffff80001ec0:	55                   	push   %rbp
       int real_size;
       void *p;

       real_size = nobj * size;
ffffffff80001ec1:	0f af fe             	imul   %esi,%edi
{
ffffffff80001ec4:	48 89 e5             	mov    %rsp,%rbp
ffffffff80001ec7:	53                   	push   %rbx
       
       p = PREFIX(malloc)( real_size );
ffffffff80001ec8:	48 63 df             	movslq %edi,%rbx
ffffffff80001ecb:	48 89 df             	mov    %rbx,%rdi
{
ffffffff80001ece:	48 83 ec 08          	sub    $0x8,%rsp
       p = PREFIX(malloc)( real_size );
ffffffff80001ed2:	e8 e9 fa ff ff       	callq  ffffffff800019c0 <kmalloc>
	for ( i = 0; i < n ; i++)
ffffffff80001ed7:	48 85 db             	test   %rbx,%rbx
ffffffff80001eda:	74 13                	je     ffffffff80001eef <kcalloc+0x2f>
ffffffff80001edc:	31 c9                	xor    %ecx,%ecx
ffffffff80001ede:	31 d2                	xor    %edx,%edx
		((char*)s)[i] = c;
ffffffff80001ee0:	c6 04 10 00          	movb   $0x0,(%rax,%rdx,1)
	for ( i = 0; i < n ; i++)
ffffffff80001ee4:	8d 51 01             	lea    0x1(%rcx),%edx
ffffffff80001ee7:	48 89 d1             	mov    %rdx,%rcx
ffffffff80001eea:	48 39 da             	cmp    %rbx,%rdx
ffffffff80001eed:	72 f1                	jb     ffffffff80001ee0 <kcalloc+0x20>

       liballoc_memset( p, 0, real_size );

       return p;
}
ffffffff80001eef:	48 8b 5d f8          	mov    -0x8(%rbp),%rbx
ffffffff80001ef3:	c9                   	leaveq 
ffffffff80001ef4:	c3                   	retq   
ffffffff80001ef5:	66 66 2e 0f 1f 84 00 	data16 nopw %cs:0x0(%rax,%rax,1)
ffffffff80001efc:	00 00 00 00 

ffffffff80001f00 <krealloc>:



void*   PREFIX(realloc)(void *p, size_t size)
{
ffffffff80001f00:	55                   	push   %rbp
ffffffff80001f01:	48 89 e5             	mov    %rsp,%rbp
ffffffff80001f04:	41 56                	push   %r14
ffffffff80001f06:	41 55                	push   %r13
ffffffff80001f08:	41 54                	push   %r12
ffffffff80001f0a:	53                   	push   %rbx
ffffffff80001f0b:	48 89 fb             	mov    %rdi,%rbx
	void *ptr;
	struct liballoc_minor *min;
	unsigned int real_size;
	
	// Honour the case of size == 0 => free old and return NULL
	if ( size == 0 )
ffffffff80001f0e:	48 85 f6             	test   %rsi,%rsi
ffffffff80001f11:	0f 84 39 01 00 00    	je     ffffffff80002050 <krealloc+0x150>
ffffffff80001f17:	49 89 f5             	mov    %rsi,%r13
		PREFIX(free)( p );
		return NULL;
	}

	// In the case of a NULL pointer, return a simple malloc.
	if ( p == NULL ) return PREFIX(malloc)( size );
ffffffff80001f1a:	48 85 ff             	test   %rdi,%rdi
ffffffff80001f1d:	0f 84 3d 01 00 00    	je     ffffffff80002060 <krealloc+0x160>

	// Unalign the pointer if required.
	ptr = p;
	UNALIGN(ptr);
ffffffff80001f23:	48 0f be 57 f0       	movsbq -0x10(%rdi),%rdx
ffffffff80001f28:	48 89 f8             	mov    %rdi,%rax
ffffffff80001f2b:	48 29 d0             	sub    %rdx,%rax
ffffffff80001f2e:	48 83 fa 20          	cmp    $0x20,%rdx
ffffffff80001f32:	48 0f 43 c7          	cmovae %rdi,%rax
ffffffff80001f36:	49 89 c4             	mov    %rax,%r12

	liballoc_lock();		// lockit
ffffffff80001f39:	31 c0                	xor    %eax,%eax
ffffffff80001f3b:	e8 40 01 00 00       	callq  ffffffff80002080 <liballoc_lock>

		min = (struct liballoc_minor*)((uintptr_t)ptr - sizeof( struct liballoc_minor ));

		// Ensure it is a valid structure.
		if ( min->magic != LIBALLOC_MAGIC ) 
ffffffff80001f40:	41 8b 54 24 f0       	mov    -0x10(%r12),%edx
		min = (struct liballoc_minor*)((uintptr_t)ptr - sizeof( struct liballoc_minor ));
ffffffff80001f45:	49 8d 44 24 d8       	lea    -0x28(%r12),%rax
		if ( min->magic != LIBALLOC_MAGIC ) 
ffffffff80001f4a:	81 fa de c0 01 c0    	cmp    $0xc001c0de,%edx
ffffffff80001f50:	0f 85 92 00 00 00    	jne    ffffffff80001fe8 <krealloc+0xe8>
		
		// Definitely a memory block.
		
		real_size = min->req_size;

		if ( real_size >= size ) 
ffffffff80001f56:	44 8b 70 20          	mov    0x20(%rax),%r14d
ffffffff80001f5a:	4d 39 ee             	cmp    %r13,%r14
ffffffff80001f5d:	0f 83 bd 00 00 00    	jae    ffffffff80002020 <krealloc+0x120>
			min->req_size = size;
			liballoc_unlock();
			return p;
		}

	liballoc_unlock();
ffffffff80001f63:	31 c0                	xor    %eax,%eax
ffffffff80001f65:	e8 26 01 00 00       	callq  ffffffff80002090 <liballoc_unlock>

	// If we got here then we're reallocating to a block bigger than us.
	ptr = PREFIX(malloc)( size );					// We need to allocate new memory
ffffffff80001f6a:	4c 89 ef             	mov    %r13,%rdi
ffffffff80001f6d:	e8 4e fa ff ff       	callq  ffffffff800019c0 <kmalloc>
ffffffff80001f72:	49 89 c4             	mov    %rax,%r12
  while ( n >= sizeof(unsigned int) )
ffffffff80001f75:	49 83 fe 03          	cmp    $0x3,%r14
ffffffff80001f79:	0f 86 f1 00 00 00    	jbe    ffffffff80002070 <krealloc+0x170>
ffffffff80001f7f:	49 83 ee 04          	sub    $0x4,%r14
ffffffff80001f83:	31 d2                	xor    %edx,%edx
ffffffff80001f85:	4c 89 f6             	mov    %r14,%rsi
ffffffff80001f88:	48 c1 ee 02          	shr    $0x2,%rsi
ffffffff80001f8c:	48 8d 04 b5 04 00 00 	lea    0x4(,%rsi,4),%rax
ffffffff80001f93:	00 
ffffffff80001f94:	0f 1f 40 00          	nopl   0x0(%rax)
      *ldest++ = *lsrc++;
ffffffff80001f98:	8b 0c 13             	mov    (%rbx,%rdx,1),%ecx
ffffffff80001f9b:	41 89 0c 14          	mov    %ecx,(%r12,%rdx,1)
  while ( n >= sizeof(unsigned int) )
ffffffff80001f9f:	48 83 c2 04          	add    $0x4,%rdx
ffffffff80001fa3:	48 39 c2             	cmp    %rax,%rdx
ffffffff80001fa6:	75 f0                	jne    ffffffff80001f98 <krealloc+0x98>
	  n -= sizeof(unsigned int);
ffffffff80001fa8:	48 f7 de             	neg    %rsi
      *ldest++ = *lsrc++;
ffffffff80001fab:	48 8d 3c 13          	lea    (%rbx,%rdx,1),%rdi
ffffffff80001faf:	4c 01 e2             	add    %r12,%rdx
	  n -= sizeof(unsigned int);
ffffffff80001fb2:	4d 8d 34 b6          	lea    (%r14,%rsi,4),%r14
  while ( n > 0 )
ffffffff80001fb6:	31 c9                	xor    %ecx,%ecx
ffffffff80001fb8:	4d 85 f6             	test   %r14,%r14
ffffffff80001fbb:	74 10                	je     ffffffff80001fcd <krealloc+0xcd>
      *cdest++ = *csrc++;
ffffffff80001fbd:	0f b6 04 0f          	movzbl (%rdi,%rcx,1),%eax
ffffffff80001fc1:	88 04 0a             	mov    %al,(%rdx,%rcx,1)
  while ( n > 0 )
ffffffff80001fc4:	48 83 c1 01          	add    $0x1,%rcx
ffffffff80001fc8:	49 39 ce             	cmp    %rcx,%r14
ffffffff80001fcb:	75 f0                	jne    ffffffff80001fbd <krealloc+0xbd>
	liballoc_memcpy( ptr, p, real_size );
	PREFIX(free)( p );
ffffffff80001fcd:	48 89 df             	mov    %rbx,%rdi
ffffffff80001fd0:	e8 3b fd ff ff       	callq  ffffffff80001d10 <kfree>

	return ptr;
}
ffffffff80001fd5:	5b                   	pop    %rbx
ffffffff80001fd6:	4c 89 e0             	mov    %r12,%rax
ffffffff80001fd9:	41 5c                	pop    %r12
ffffffff80001fdb:	41 5d                	pop    %r13
ffffffff80001fdd:	41 5e                	pop    %r14
ffffffff80001fdf:	5d                   	pop    %rbp
ffffffff80001fe0:	c3                   	retq   
ffffffff80001fe1:	0f 1f 80 00 00 00 00 	nopl   0x0(%rax)
				((min->magic & 0xFFFFFF) == (LIBALLOC_MAGIC & 0xFFFFFF)) || 
ffffffff80001fe8:	89 d0                	mov    %edx,%eax
			l_errorCount += 1;
ffffffff80001fea:	48 83 05 b6 e2 00 00 	addq   $0x1,0xe2b6(%rip)        # ffffffff800102a8 <l_errorCount>
ffffffff80001ff1:	01 
				((min->magic & 0xFFFFFF) == (LIBALLOC_MAGIC & 0xFFFFFF)) || 
ffffffff80001ff2:	25 ff ff ff 00       	and    $0xffffff,%eax
			if ( 
ffffffff80001ff7:	3d de c0 01 00       	cmp    $0x1c0de,%eax
ffffffff80001ffc:	74 42                	je     ffffffff80002040 <krealloc+0x140>
				((min->magic & 0xFFFFFF) == (LIBALLOC_MAGIC & 0xFFFFFF)) || 
ffffffff80001ffe:	66 81 fa de c0       	cmp    $0xc0de,%dx
ffffffff80002003:	74 3b                	je     ffffffff80002040 <krealloc+0x140>
				((min->magic & 0xFFFF) == (LIBALLOC_MAGIC & 0xFFFF)) || 
ffffffff80002005:	80 fa de             	cmp    $0xde,%dl
ffffffff80002008:	74 36                	je     ffffffff80002040 <krealloc+0x140>
			liballoc_unlock();		// release the lock
ffffffff8000200a:	31 c0                	xor    %eax,%eax
ffffffff8000200c:	e8 7f 00 00 00       	callq  ffffffff80002090 <liballoc_unlock>
		return NULL;
ffffffff80002011:	45 31 e4             	xor    %r12d,%r12d
}
ffffffff80002014:	5b                   	pop    %rbx
ffffffff80002015:	4c 89 e0             	mov    %r12,%rax
ffffffff80002018:	41 5c                	pop    %r12
ffffffff8000201a:	41 5d                	pop    %r13
ffffffff8000201c:	41 5e                	pop    %r14
ffffffff8000201e:	5d                   	pop    %rbp
ffffffff8000201f:	c3                   	retq   
			min->req_size = size;
ffffffff80002020:	44 89 68 20          	mov    %r13d,0x20(%rax)
			return p;
ffffffff80002024:	49 89 dc             	mov    %rbx,%r12
			liballoc_unlock();
ffffffff80002027:	31 c0                	xor    %eax,%eax
ffffffff80002029:	e8 62 00 00 00       	callq  ffffffff80002090 <liballoc_unlock>
}
ffffffff8000202e:	5b                   	pop    %rbx
ffffffff8000202f:	4c 89 e0             	mov    %r12,%rax
ffffffff80002032:	41 5c                	pop    %r12
ffffffff80002034:	41 5d                	pop    %r13
ffffffff80002036:	41 5e                	pop    %r14
ffffffff80002038:	5d                   	pop    %rbp
ffffffff80002039:	c3                   	retq   
ffffffff8000203a:	66 0f 1f 44 00 00    	nopw   0x0(%rax,%rax,1)
				l_possibleOverruns += 1;
ffffffff80002040:	48 83 05 58 e2 00 00 	addq   $0x1,0xe258(%rip)        # ffffffff800102a0 <l_possibleOverruns>
ffffffff80002047:	01 
ffffffff80002048:	eb c0                	jmp    ffffffff8000200a <krealloc+0x10a>
ffffffff8000204a:	66 0f 1f 44 00 00    	nopw   0x0(%rax,%rax,1)
		PREFIX(free)( p );
ffffffff80002050:	e8 bb fc ff ff       	callq  ffffffff80001d10 <kfree>
		return NULL;
ffffffff80002055:	eb ba                	jmp    ffffffff80002011 <krealloc+0x111>
ffffffff80002057:	66 0f 1f 84 00 00 00 	nopw   0x0(%rax,%rax,1)
ffffffff8000205e:	00 00 
}
ffffffff80002060:	5b                   	pop    %rbx
	if ( p == NULL ) return PREFIX(malloc)( size );
ffffffff80002061:	48 89 f7             	mov    %rsi,%rdi
}
ffffffff80002064:	41 5c                	pop    %r12
ffffffff80002066:	41 5d                	pop    %r13
ffffffff80002068:	41 5e                	pop    %r14
ffffffff8000206a:	5d                   	pop    %rbp
	if ( p == NULL ) return PREFIX(malloc)( size );
ffffffff8000206b:	e9 50 f9 ff ff       	jmpq   ffffffff800019c0 <kmalloc>
  unsigned int *ldest = (unsigned int*)s1;
ffffffff80002070:	48 89 c2             	mov    %rax,%rdx
  while ( n >= sizeof(unsigned int) )
ffffffff80002073:	48 89 df             	mov    %rbx,%rdi
ffffffff80002076:	e9 3b ff ff ff       	jmpq   ffffffff80001fb6 <krealloc+0xb6>
ffffffff8000207b:	0f 1f 44 00 00       	nopl   0x0(%rax,%rax,1)

ffffffff80002080 <liballoc_lock>:



int liballoc_lock()
{
    asm("cli");
ffffffff80002080:	fa                   	cli    
    return 0;
}
ffffffff80002081:	31 c0                	xor    %eax,%eax
ffffffff80002083:	c3                   	retq   
ffffffff80002084:	66 66 2e 0f 1f 84 00 	data16 nopw %cs:0x0(%rax,%rax,1)
ffffffff8000208b:	00 00 00 00 
ffffffff8000208f:	90                   	nop

ffffffff80002090 <liballoc_unlock>:


int liballoc_unlock()
{
    asm("sti");
ffffffff80002090:	fb                   	sti    
    return 0;
}
ffffffff80002091:	31 c0                	xor    %eax,%eax
ffffffff80002093:	c3                   	retq   
ffffffff80002094:	66 66 2e 0f 1f 84 00 	data16 nopw %cs:0x0(%rax,%rax,1)
ffffffff8000209b:	00 00 00 00 
ffffffff8000209f:	90                   	nop

ffffffff800020a0 <liballoc_free>:

int liballoc_free(void* page, size_t count)
{
    return 0;
}
ffffffff800020a0:	31 c0                	xor    %eax,%eax
ffffffff800020a2:	c3                   	retq   
ffffffff800020a3:	66 66 2e 0f 1f 84 00 	data16 nopw %cs:0x0(%rax,%rax,1)
ffffffff800020aa:	00 00 00 00 
ffffffff800020ae:	66 90                	xchg   %ax,%ax

ffffffff800020b0 <liballoc_alloc>:

void* liballoc_alloc(size_t count)
{
    for(uint64_t i = 0; i < count; i++)
ffffffff800020b0:	48 85 ff             	test   %rdi,%rdi
ffffffff800020b3:	74 6b                	je     ffffffff80002120 <liballoc_alloc+0x70>
{
ffffffff800020b5:	55                   	push   %rbp
ffffffff800020b6:	48 89 e5             	mov    %rsp,%rbp
ffffffff800020b9:	41 54                	push   %r12
    for(uint64_t i = 0; i < count; i++)
ffffffff800020bb:	45 31 e4             	xor    %r12d,%r12d
{
ffffffff800020be:	53                   	push   %rbx
ffffffff800020bf:	48 89 fb             	mov    %rdi,%rbx
ffffffff800020c2:	66 0f 1f 44 00 00    	nopw   0x0(%rax,%rax,1)
    {
        vmm_map_4Kpage(RootPageDirectory, (kernel_heap_top + 4096), (uint64_t)pmm_allocpage(), PTE_PRESENT | PTE_READWRITE);
ffffffff800020c8:	31 c0                	xor    %eax,%eax
    for(uint64_t i = 0; i < count; i++)
ffffffff800020ca:	49 83 c4 01          	add    $0x1,%r12
        vmm_map_4Kpage(RootPageDirectory, (kernel_heap_top + 4096), (uint64_t)pmm_allocpage(), PTE_PRESENT | PTE_READWRITE);
ffffffff800020ce:	e8 ad 02 00 00       	callq  ffffffff80002380 <pmm_allocpage>
ffffffff800020d3:	48 8b 3d 56 e2 00 00 	mov    0xe256(%rip),%rdi        # ffffffff80010330 <RootPageDirectory>
ffffffff800020da:	b9 03 00 00 00       	mov    $0x3,%ecx
ffffffff800020df:	48 89 c2             	mov    %rax,%rdx
ffffffff800020e2:	48 8b 05 f7 56 00 00 	mov    0x56f7(%rip),%rax        # ffffffff800077e0 <kernel_heap_top>
ffffffff800020e9:	48 8d b0 00 10 00 00 	lea    0x1000(%rax),%rsi
ffffffff800020f0:	e8 9b 06 00 00       	callq  ffffffff80002790 <vmm_map_4Kpage>
        kernel_heap_top += 4096;
ffffffff800020f5:	48 8b 05 e4 56 00 00 	mov    0x56e4(%rip),%rax        # ffffffff800077e0 <kernel_heap_top>
ffffffff800020fc:	48 05 00 10 00 00    	add    $0x1000,%rax
ffffffff80002102:	48 89 05 d7 56 00 00 	mov    %rax,0x56d7(%rip)        # ffffffff800077e0 <kernel_heap_top>
    for(uint64_t i = 0; i < count; i++)
ffffffff80002109:	4c 39 e3             	cmp    %r12,%rbx
ffffffff8000210c:	75 ba                	jne    ffffffff800020c8 <liballoc_alloc+0x18>
    return addr - 0xFFFF800000000000;
}

static inline uint64_t phys_to_hh_data(uint64_t addr)
{
    return 0xFFFF800000000000 + addr;
ffffffff8000210e:	48 ba 00 00 00 00 00 	movabs $0xffff800000000000,%rdx
ffffffff80002115:	80 ff ff 
    }
    return (void*)(phys_to_hh_data((uint64_t)kernel_heap_top));
ffffffff80002118:	5b                   	pop    %rbx
ffffffff80002119:	41 5c                	pop    %r12
ffffffff8000211b:	48 01 d0             	add    %rdx,%rax
ffffffff8000211e:	5d                   	pop    %rbp
ffffffff8000211f:	c3                   	retq   
    return (void*)(phys_to_hh_data((uint64_t)kernel_heap_top));
ffffffff80002120:	48 8b 05 b9 56 00 00 	mov    0x56b9(%rip),%rax        # ffffffff800077e0 <kernel_heap_top>
ffffffff80002127:	48 ba 00 00 00 00 00 	movabs $0xffff800000000000,%rdx
ffffffff8000212e:	80 ff ff 
ffffffff80002131:	48 01 d0             	add    %rdx,%rax
ffffffff80002134:	c3                   	retq   
ffffffff80002135:	66 2e 0f 1f 84 00 00 	nopw   %cs:0x0(%rax,%rax,1)
ffffffff8000213c:	00 00 00 
ffffffff8000213f:	90                   	nop

ffffffff80002140 <pmm_init>:
    return NULL;
}*/

//Initialize the Physical Memory Manager
void pmm_init()
{
ffffffff80002140:	55                   	push   %rbp
ffffffff80002141:	48 89 e5             	mov    %rsp,%rbp
ffffffff80002144:	41 55                	push   %r13
ffffffff80002146:	41 54                	push   %r12
ffffffff80002148:	53                   	push   %rbx
ffffffff80002149:	48 83 ec 08          	sub    $0x8,%rsp
    //memory map helper variables
    uint64_t mmap_entries = boot_info.tag_memmap->entries;
ffffffff8000214d:	4c 8b 1d e4 6b 00 00 	mov    0x6be4(%rip),%r11        # ffffffff80008d38 <boot_info+0x18>
            mmap_largest_segment_size = current_entry->length;
        }
    };

    //Populate the PMM state variables
    pmm_info.totalpages = pmm_info.totalmem / 4096;
ffffffff80002154:	48 8b 3d a5 e1 00 00 	mov    0xe1a5(%rip),%rdi        # ffffffff80010300 <pmm_info>
    uint64_t mmap_entries = boot_info.tag_memmap->entries;
ffffffff8000215b:	49 8b 5b 10          	mov    0x10(%r11),%rbx
    for (uint64_t i = 0; i < mmap_entries; i++)
ffffffff8000215f:	48 85 db             	test   %rbx,%rbx
ffffffff80002162:	0f 84 64 04 00 00    	je     ffffffff800025cc <pmm_init.cold>
ffffffff80002168:	49 8d 43 18          	lea    0x18(%r11),%rax
ffffffff8000216c:	45 31 c9             	xor    %r9d,%r9d
ffffffff8000216f:	31 d2                	xor    %edx,%edx
    uint64_t mmap_largest_segment_size = 0;     //Size of the largest segment
ffffffff80002171:	45 31 c0             	xor    %r8d,%r8d
    uint64_t mmap_largest_segment_base = 0;     //Address of the largest segment
ffffffff80002174:	45 31 d2             	xor    %r10d,%r10d
ffffffff80002177:	eb 20                	jmp    ffffffff80002199 <pmm_init+0x59>
ffffffff80002179:	0f 1f 80 00 00 00 00 	nopl   0x0(%rax)
        if(current_entry->length > mmap_largest_segment_size)
ffffffff80002180:	83 fe 01             	cmp    $0x1,%esi
ffffffff80002183:	75 0b                	jne    ffffffff80002190 <pmm_init+0x50>
ffffffff80002185:	49 39 c8             	cmp    %rcx,%r8
ffffffff80002188:	73 06                	jae    ffffffff80002190 <pmm_init+0x50>
            mmap_largest_segment_base = current_entry->base;
ffffffff8000218a:	4c 8b 10             	mov    (%rax),%r10
        pmm_info.totalmem = pmm_info.totalmem + current_entry->length;
ffffffff8000218d:	49 89 c8             	mov    %rcx,%r8
    for (uint64_t i = 0; i < mmap_entries; i++)
ffffffff80002190:	48 83 c0 18          	add    $0x18,%rax
ffffffff80002194:	48 39 d3             	cmp    %rdx,%rbx
ffffffff80002197:	74 2b                	je     ffffffff800021c4 <pmm_init+0x84>
        pmm_info.totalmem = pmm_info.totalmem + current_entry->length;
ffffffff80002199:	48 8b 48 08          	mov    0x8(%rax),%rcx
        if(current_entry->type == 0x1002)
ffffffff8000219d:	8b 70 10             	mov    0x10(%rax),%esi
ffffffff800021a0:	48 83 c2 01          	add    $0x1,%rdx
        pmm_info.totalmem = pmm_info.totalmem + current_entry->length;
ffffffff800021a4:	48 01 cf             	add    %rcx,%rdi
        if(current_entry->type == 0x1002)
ffffffff800021a7:	81 fe 02 10 00 00    	cmp    $0x1002,%esi
ffffffff800021ad:	75 d1                	jne    ffffffff80002180 <pmm_init+0x40>
            pmm_vmm_info.fb_base = current_entry->base;
ffffffff800021af:	4c 8b 20             	mov    (%rax),%r12
        pmm_info.totalmem = pmm_info.totalmem + current_entry->length;
ffffffff800021b2:	49 89 cd             	mov    %rcx,%r13
            pmm_vmm_info.fb_base = current_entry->base;
ffffffff800021b5:	41 b9 01 00 00 00    	mov    $0x1,%r9d
    for (uint64_t i = 0; i < mmap_entries; i++)
ffffffff800021bb:	48 83 c0 18          	add    $0x18,%rax
ffffffff800021bf:	48 39 d3             	cmp    %rdx,%rbx
ffffffff800021c2:	75 d5                	jne    ffffffff80002199 <pmm_init+0x59>
ffffffff800021c4:	48 89 3d 35 e1 00 00 	mov    %rdi,0xe135(%rip)        # ffffffff80010300 <pmm_info>
ffffffff800021cb:	45 84 c9             	test   %r9b,%r9b
ffffffff800021ce:	74 0e                	je     ffffffff800021de <pmm_init+0x9e>
ffffffff800021d0:	4c 89 2d 19 e1 00 00 	mov    %r13,0xe119(%rip)        # ffffffff800102f0 <pmm_vmm_info+0x10>
ffffffff800021d7:	4c 89 25 0a e1 00 00 	mov    %r12,0xe10a(%rip)        # ffffffff800102e8 <pmm_vmm_info+0x8>
    pmm_info.totalpages = pmm_info.totalmem / 4096;
ffffffff800021de:	48 89 f8             	mov    %rdi,%rax
    pmm_info.usedpages = pmm_info.totalpages;
    pmm_info.bitmap_size = (pmm_info.totalpages / 8) + 1;
    
    if(pmm_info.bitmap_size > current_entry->length) 
ffffffff800021e1:	48 8d 14 5b          	lea    (%rbx,%rbx,2),%rdx
    pmm_info.totalpages = pmm_info.totalmem / 4096;
ffffffff800021e5:	48 c1 e8 0c          	shr    $0xc,%rax
ffffffff800021e9:	48 89 05 20 e1 00 00 	mov    %rax,0xe120(%rip)        # ffffffff80010310 <pmm_info+0x10>
    pmm_info.usedpages = pmm_info.totalpages;
ffffffff800021f0:	48 89 05 11 e1 00 00 	mov    %rax,0xe111(%rip)        # ffffffff80010308 <pmm_info+0x8>
    pmm_info.bitmap_size = (pmm_info.totalpages / 8) + 1;
ffffffff800021f7:	48 89 f8             	mov    %rdi,%rax
ffffffff800021fa:	48 c1 e8 0f          	shr    $0xf,%rax
ffffffff800021fe:	48 83 c0 01          	add    $0x1,%rax
ffffffff80002202:	48 89 05 17 e1 00 00 	mov    %rax,0xe117(%rip)        # ffffffff80010320 <pmm_info+0x20>
    if(pmm_info.bitmap_size > current_entry->length) 
ffffffff80002209:	49 39 44 d3 08       	cmp    %rax,0x8(%r11,%rdx,8)
ffffffff8000220e:	73 10                	jae    ffffffff80002220 <pmm_init+0xe0>
        {
            printf("Bitmap too large");
ffffffff80002210:	48 c7 c7 b2 57 00 80 	mov    $0xffffffff800057b2,%rdi
ffffffff80002217:	31 c0                	xor    %eax,%eax
ffffffff80002219:	e8 92 1d 00 00       	callq  ffffffff80003fb0 <printf_>
            for(;;){}   //hang
ffffffff8000221e:	eb fe                	jmp    ffffffff8000221e <pmm_init+0xde>
ffffffff80002220:	48 b8 00 00 00 00 00 	movabs $0xffff800000000000,%rax
ffffffff80002227:	80 ff ff 
        }
    
    pmm_info.bitmap = (uint8_t*)phys_to_hh_data(mmap_largest_segment_base); 

    printf("Total Memory: %d\n", (pmm_info.totalmem));
ffffffff8000222a:	48 89 fe             	mov    %rdi,%rsi
ffffffff8000222d:	48 c7 c7 c3 57 00 80 	mov    $0xffffffff800057c3,%rdi
ffffffff80002234:	49 01 c2             	add    %rax,%r10
ffffffff80002237:	31 c0                	xor    %eax,%eax
ffffffff80002239:	4c 89 15 d8 e0 00 00 	mov    %r10,0xe0d8(%rip)        # ffffffff80010318 <pmm_info+0x18>
ffffffff80002240:	e8 6b 1d 00 00       	callq  ffffffff80003fb0 <printf_>
    printf("Total Pages: %d   Used Pages: %d\n", pmm_info.totalpages, pmm_info.usedpages);
ffffffff80002245:	48 8b 15 bc e0 00 00 	mov    0xe0bc(%rip),%rdx        # ffffffff80010308 <pmm_info+0x8>
ffffffff8000224c:	48 8b 35 bd e0 00 00 	mov    0xe0bd(%rip),%rsi        # ffffffff80010310 <pmm_info+0x10>
ffffffff80002253:	31 c0                	xor    %eax,%eax
ffffffff80002255:	48 c7 c7 10 58 00 80 	mov    $0xffffffff80005810,%rdi
ffffffff8000225c:	e8 4f 1d 00 00       	callq  ffffffff80003fb0 <printf_>
    printf("Bitmap Addr: %p  Bitmap Size (bytes): %d\n", pmm_info.bitmap, pmm_info.bitmap_size);
ffffffff80002261:	48 8b 15 b8 e0 00 00 	mov    0xe0b8(%rip),%rdx        # ffffffff80010320 <pmm_info+0x20>
ffffffff80002268:	31 c0                	xor    %eax,%eax
ffffffff8000226a:	48 8b 35 a7 e0 00 00 	mov    0xe0a7(%rip),%rsi        # ffffffff80010318 <pmm_info+0x18>
ffffffff80002271:	48 c7 c7 38 58 00 80 	mov    $0xffffffff80005838,%rdi
ffffffff80002278:	e8 33 1d 00 00       	callq  ffffffff80003fb0 <printf_>

    //Set all bitmap bits to 1
    for (uint64_t i = 0; i < pmm_info.bitmap_size; i++)
ffffffff8000227d:	31 c0                	xor    %eax,%eax
ffffffff8000227f:	48 83 3d 99 e0 00 00 	cmpq   $0x0,0xe099(%rip)        # ffffffff80010320 <pmm_info+0x20>
ffffffff80002286:	00 
ffffffff80002287:	74 1f                	je     ffffffff800022a8 <pmm_init+0x168>
ffffffff80002289:	0f 1f 80 00 00 00 00 	nopl   0x0(%rax)
        {
        pmm_info.bitmap[i] = 0xff;
ffffffff80002290:	48 8b 15 81 e0 00 00 	mov    0xe081(%rip),%rdx        # ffffffff80010318 <pmm_info+0x18>
ffffffff80002297:	c6 04 02 ff          	movb   $0xff,(%rdx,%rax,1)
    for (uint64_t i = 0; i < pmm_info.bitmap_size; i++)
ffffffff8000229b:	48 83 c0 01          	add    $0x1,%rax
ffffffff8000229f:	48 3b 05 7a e0 00 00 	cmp    0xe07a(%rip),%rax        # ffffffff80010320 <pmm_info+0x20>
ffffffff800022a6:	72 e8                	jb     ffffffff80002290 <pmm_init+0x150>
    

    //printf("Number of MMAP Entries: %d\n", mmap_entries);

    //Iterate through the memory map again, unset bitmap for available memory
    for (uint64_t i = 0; i < mmap_entries; i++)
ffffffff800022a8:	31 f6                	xor    %esi,%esi
    bitmap[bit / 8] &= ~(1 << (bit % 8));
ffffffff800022aa:	bf 01 00 00 00       	mov    $0x1,%edi
ffffffff800022af:	eb 10                	jmp    ffffffff800022c1 <pmm_init+0x181>
ffffffff800022b1:	0f 1f 80 00 00 00 00 	nopl   0x0(%rax)
    for (uint64_t i = 0; i < mmap_entries; i++)
ffffffff800022b8:	48 83 c6 01          	add    $0x1,%rsi
ffffffff800022bc:	48 39 f3             	cmp    %rsi,%rbx
ffffffff800022bf:	74 69                	je     ffffffff8000232a <pmm_init+0x1ea>
    {
        current_entry = &boot_info.tag_memmap->memmap[i];

        if(current_entry->type == 1)
ffffffff800022c1:	48 8b 15 70 6a 00 00 	mov    0x6a70(%rip),%rdx        # ffffffff80008d38 <boot_info+0x18>
ffffffff800022c8:	48 8d 04 76          	lea    (%rsi,%rsi,2),%rax
ffffffff800022cc:	48 8d 04 c2          	lea    (%rdx,%rax,8),%rax
ffffffff800022d0:	83 78 28 01          	cmpl   $0x1,0x28(%rax)
ffffffff800022d4:	75 e2                	jne    ffffffff800022b8 <pmm_init+0x178>
        {
            uint64_t pages = current_entry->length / 4096;
ffffffff800022d6:	4c 8b 40 20          	mov    0x20(%rax),%r8
            uint64_t align = current_entry->base / 4096;
ffffffff800022da:	48 8b 40 18          	mov    0x18(%rax),%rax
ffffffff800022de:	48 c1 e8 0c          	shr    $0xc,%rax
            //printf("Index: %d  Pages: %d\n", align, pages);

            for(uint64_t j = 0; j < pages; j++)
ffffffff800022e2:	49 c1 e8 0c          	shr    $0xc,%r8
ffffffff800022e6:	74 d0                	je     ffffffff800022b8 <pmm_init+0x178>
ffffffff800022e8:	49 01 c0             	add    %rax,%r8
ffffffff800022eb:	0f 1f 44 00 00       	nopl   0x0(%rax,%rax,1)
    bitmap[bit / 8] &= ~(1 << (bit % 8));
ffffffff800022f0:	89 c1                	mov    %eax,%ecx
ffffffff800022f2:	41 89 fb             	mov    %edi,%r11d
ffffffff800022f5:	48 89 c2             	mov    %rax,%rdx
                //uint64_t bitindex = align % 8;
                //pmm_info.bitmap[byteindex] &= ~(1 << bitindex);
                
                bitmap_unset(pmm_info.bitmap, align);

                align++;                    //increment page index
ffffffff800022f8:	48 83 c0 01          	add    $0x1,%rax
    bitmap[bit / 8] &= ~(1 << (bit % 8));
ffffffff800022fc:	83 e1 07             	and    $0x7,%ecx
ffffffff800022ff:	48 c1 ea 03          	shr    $0x3,%rdx
ffffffff80002303:	48 03 15 0e e0 00 00 	add    0xe00e(%rip),%rdx        # ffffffff80010318 <pmm_info+0x18>
ffffffff8000230a:	41 d3 e3             	shl    %cl,%r11d
ffffffff8000230d:	44 89 d9             	mov    %r11d,%ecx
ffffffff80002310:	f7 d1                	not    %ecx
ffffffff80002312:	20 0a                	and    %cl,(%rdx)
                pmm_info.usedpages--;       //decrement used page counter
ffffffff80002314:	48 83 2d ec df 00 00 	subq   $0x1,0xdfec(%rip)        # ffffffff80010308 <pmm_info+0x8>
ffffffff8000231b:	01 
            for(uint64_t j = 0; j < pages; j++)
ffffffff8000231c:	4c 39 c0             	cmp    %r8,%rax
ffffffff8000231f:	75 cf                	jne    ffffffff800022f0 <pmm_init+0x1b0>
    for (uint64_t i = 0; i < mmap_entries; i++)
ffffffff80002321:	48 83 c6 01          	add    $0x1,%rsi
ffffffff80002325:	48 39 f3             	cmp    %rsi,%rbx
ffffffff80002328:	75 97                	jne    ffffffff800022c1 <pmm_init+0x181>
            }
        }
    }

    //Make certain the NULL page is unavailable
    bitmap_set(pmm_info.bitmap, 0);
ffffffff8000232a:	48 8b 05 e7 df 00 00 	mov    0xdfe7(%rip),%rax        # ffffffff80010318 <pmm_info+0x18>
    pmm_info.usedpages++;

    printf("Available Pages: %d\n", (pmm_info.totalpages - pmm_info.usedpages));
ffffffff80002331:	48 c7 c7 d5 57 00 80 	mov    $0xffffffff800057d5,%rdi
    bitmap[bit / 8] |= (1 << (bit % 8));
ffffffff80002338:	80 08 01             	orb    $0x1,(%rax)
    pmm_info.usedpages++;
ffffffff8000233b:	48 8b 05 c6 df 00 00 	mov    0xdfc6(%rip),%rax        # ffffffff80010308 <pmm_info+0x8>
    printf("Available Pages: %d\n", (pmm_info.totalpages - pmm_info.usedpages));
ffffffff80002342:	48 8b 35 c7 df 00 00 	mov    0xdfc7(%rip),%rsi        # ffffffff80010310 <pmm_info+0x10>
    pmm_info.usedpages++;
ffffffff80002349:	48 83 c0 01          	add    $0x1,%rax
ffffffff8000234d:	48 89 05 b4 df 00 00 	mov    %rax,0xdfb4(%rip)        # ffffffff80010308 <pmm_info+0x8>
    printf("Available Pages: %d\n", (pmm_info.totalpages - pmm_info.usedpages));
ffffffff80002354:	48 29 c6             	sub    %rax,%rsi
ffffffff80002357:	31 c0                	xor    %eax,%eax
ffffffff80002359:	e8 52 1c 00 00       	callq  ffffffff80003fb0 <printf_>
    printf("PMM Initialized\n");

}
ffffffff8000235e:	48 83 c4 08          	add    $0x8,%rsp
    printf("PMM Initialized\n");
ffffffff80002362:	48 c7 c7 ea 57 00 80 	mov    $0xffffffff800057ea,%rdi
ffffffff80002369:	31 c0                	xor    %eax,%eax
}
ffffffff8000236b:	5b                   	pop    %rbx
ffffffff8000236c:	41 5c                	pop    %r12
ffffffff8000236e:	41 5d                	pop    %r13
ffffffff80002370:	5d                   	pop    %rbp
    printf("PMM Initialized\n");
ffffffff80002371:	e9 3a 1c 00 00       	jmpq   ffffffff80003fb0 <printf_>
ffffffff80002376:	66 2e 0f 1f 84 00 00 	nopw   %cs:0x0(%rax,%rax,1)
ffffffff8000237d:	00 00 00 

ffffffff80002380 <pmm_allocpage>:


void* pmm_allocpage()
{
ffffffff80002380:	55                   	push   %rbp
ffffffff80002381:	48 89 e5             	mov    %rsp,%rbp
ffffffff80002384:	53                   	push   %rbx
    if(pmm_info.usedpages >= pmm_info.totalpages)
        return NULL;
ffffffff80002385:	31 db                	xor    %ebx,%ebx
{
ffffffff80002387:	48 83 ec 08          	sub    $0x8,%rsp
    if(pmm_info.usedpages >= pmm_info.totalpages)
ffffffff8000238b:	48 8b 05 7e df 00 00 	mov    0xdf7e(%rip),%rax        # ffffffff80010310 <pmm_info+0x10>
ffffffff80002392:	48 39 05 6f df 00 00 	cmp    %rax,0xdf6f(%rip)        # ffffffff80010308 <pmm_info+0x8>
ffffffff80002399:	0f 83 92 00 00 00    	jae    ffffffff80002431 <pmm_allocpage+0xb1>
    
    uint64_t index = get_first_unset(pmm_info.bitmap, pmm_info.bitmap_size);
ffffffff8000239f:	48 8b 3d 7a df 00 00 	mov    0xdf7a(%rip),%rdi        # ffffffff80010320 <pmm_info+0x20>
ffffffff800023a6:	48 8b 35 6b df 00 00 	mov    0xdf6b(%rip),%rsi        # ffffffff80010318 <pmm_info+0x18>
    for(uint64_t i = 0; i < size; i++)
ffffffff800023ad:	48 85 ff             	test   %rdi,%rdi
ffffffff800023b0:	0f 84 95 00 00 00    	je     ffffffff8000244b <pmm_allocpage+0xcb>
ffffffff800023b6:	31 d2                	xor    %edx,%edx
ffffffff800023b8:	eb 0f                	jmp    ffffffff800023c9 <pmm_allocpage+0x49>
ffffffff800023ba:	66 0f 1f 44 00 00    	nopw   0x0(%rax,%rax,1)
ffffffff800023c0:	48 83 c2 01          	add    $0x1,%rdx
ffffffff800023c4:	48 39 d7             	cmp    %rdx,%rdi
ffffffff800023c7:	74 77                	je     ffffffff80002440 <pmm_allocpage+0xc0>
        if(bitmap[i] != 0xff)
ffffffff800023c9:	0f b6 04 16          	movzbl (%rsi,%rdx,1),%eax
ffffffff800023cd:	3c ff                	cmp    $0xff,%al
ffffffff800023cf:	74 ef                	je     ffffffff800023c0 <pmm_allocpage+0x40>
                if(!(bitmap[i] & (1 << j)))
ffffffff800023d1:	a8 01                	test   $0x1,%al
ffffffff800023d3:	0f b6 c8             	movzbl %al,%ecx
            for(uint64_t j = 0; j < 8; j++)
ffffffff800023d6:	b8 00 00 00 00       	mov    $0x0,%eax
                if(!(bitmap[i] & (1 << j)))
ffffffff800023db:	74 12                	je     ffffffff800023ef <pmm_allocpage+0x6f>
ffffffff800023dd:	0f 1f 00             	nopl   (%rax)
            for(uint64_t j = 0; j < 8; j++)
ffffffff800023e0:	48 83 c0 01          	add    $0x1,%rax
ffffffff800023e4:	48 83 f8 08          	cmp    $0x8,%rax
ffffffff800023e8:	74 d6                	je     ffffffff800023c0 <pmm_allocpage+0x40>
                if(!(bitmap[i] & (1 << j)))
ffffffff800023ea:	0f a3 c1             	bt     %eax,%ecx
ffffffff800023ed:	72 f1                	jb     ffffffff800023e0 <pmm_allocpage+0x60>
                    return (i * 8) + j;
ffffffff800023ef:	48 8d 0c d0          	lea    (%rax,%rdx,8),%rcx
    bitmap[bit / 8] |= (1 << (bit % 8));
ffffffff800023f3:	48 89 c8             	mov    %rcx,%rax
    
    bitmap_set(pmm_info.bitmap, index);

    pmm_info.usedpages++;

    DEBUG_MSG("PMM ALLOC: %p\n", (index * PAGE_SIZE));
ffffffff800023f6:	48 89 cf             	mov    %rcx,%rdi
    bitmap[bit / 8] |= (1 << (bit % 8));
ffffffff800023f9:	83 e1 07             	and    $0x7,%ecx
ffffffff800023fc:	48 c1 e8 03          	shr    $0x3,%rax
    DEBUG_MSG("PMM ALLOC: %p\n", (index * PAGE_SIZE));
ffffffff80002400:	48 c1 e7 0c          	shl    $0xc,%rdi
    bitmap[bit / 8] |= (1 << (bit % 8));
ffffffff80002404:	48 01 c6             	add    %rax,%rsi
ffffffff80002407:	b8 01 00 00 00       	mov    $0x1,%eax

    return (void*)(index * PAGE_SIZE);
ffffffff8000240c:	48 89 fb             	mov    %rdi,%rbx
ffffffff8000240f:	d3 e0                	shl    %cl,%eax
    bitmap[bit / 8] |= (1 << (bit % 8));
ffffffff80002411:	08 06                	or     %al,(%rsi)
    DEBUG_MSG("PMM ALLOC: %p\n", (index * PAGE_SIZE));
ffffffff80002413:	48 89 fa             	mov    %rdi,%rdx
ffffffff80002416:	48 c7 c6 fb 57 00 80 	mov    $0xffffffff800057fb,%rsi
ffffffff8000241d:	31 c0                	xor    %eax,%eax
ffffffff8000241f:	bf f8 03 00 00       	mov    $0x3f8,%edi
    pmm_info.usedpages++;
ffffffff80002424:	48 83 05 dc de 00 00 	addq   $0x1,0xdedc(%rip)        # ffffffff80010308 <pmm_info+0x8>
ffffffff8000242b:	01 
    DEBUG_MSG("PMM ALLOC: %p\n", (index * PAGE_SIZE));
ffffffff8000242c:	e8 3f 1d 00 00       	callq  ffffffff80004170 <serial_printf>
}
ffffffff80002431:	48 89 d8             	mov    %rbx,%rax
ffffffff80002434:	48 8b 5d f8          	mov    -0x8(%rbp),%rbx
ffffffff80002438:	c9                   	leaveq 
ffffffff80002439:	c3                   	retq   
ffffffff8000243a:	66 0f 1f 44 00 00    	nopw   0x0(%rax,%rax,1)
ffffffff80002440:	b8 01 00 00 00       	mov    $0x1,%eax
ffffffff80002445:	31 db                	xor    %ebx,%ebx
ffffffff80002447:	31 ff                	xor    %edi,%edi
ffffffff80002449:	eb c6                	jmp    ffffffff80002411 <pmm_allocpage+0x91>
    for(uint64_t i = 0; i < size; i++)
ffffffff8000244b:	b8 01 00 00 00       	mov    $0x1,%eax
ffffffff80002450:	eb bf                	jmp    ffffffff80002411 <pmm_allocpage+0x91>
ffffffff80002452:	66 66 2e 0f 1f 84 00 	data16 nopw %cs:0x0(%rax,%rax,1)
ffffffff80002459:	00 00 00 00 
ffffffff8000245d:	0f 1f 00             	nopl   (%rax)

ffffffff80002460 <pmm_freepage>:
    bitmap[bit / 8] &= ~(1 << (bit % 8));
ffffffff80002460:	48 89 fa             	mov    %rdi,%rdx


void pmm_freepage(void* page)
{
    uint64_t index = (uint64_t)page / PAGE_SIZE;
ffffffff80002463:	48 c1 ef 0c          	shr    $0xc,%rdi
    bitmap[bit / 8] &= ~(1 << (bit % 8));
ffffffff80002467:	b8 01 00 00 00       	mov    $0x1,%eax
ffffffff8000246c:	89 f9                	mov    %edi,%ecx
ffffffff8000246e:	48 c1 ea 0f          	shr    $0xf,%rdx
ffffffff80002472:	48 03 15 9f de 00 00 	add    0xde9f(%rip),%rdx        # ffffffff80010318 <pmm_info+0x18>
ffffffff80002479:	83 e1 07             	and    $0x7,%ecx
ffffffff8000247c:	d3 e0                	shl    %cl,%eax
ffffffff8000247e:	f7 d0                	not    %eax
ffffffff80002480:	20 02                	and    %al,(%rdx)
    bitmap_unset(pmm_info.bitmap, index);
    pmm_info.usedpages--;
ffffffff80002482:	48 83 2d 7e de 00 00 	subq   $0x1,0xde7e(%rip)        # ffffffff80010308 <pmm_info+0x8>
ffffffff80002489:	01 
}
ffffffff8000248a:	c3                   	retq   
ffffffff8000248b:	0f 1f 44 00 00       	nopl   0x0(%rax,%rax,1)

ffffffff80002490 <pmm_allocpages>:

void* pmm_allocpages(uint64_t count)
{
    if(pmm_info.usedpages >= pmm_info.totalpages)
ffffffff80002490:	4c 8b 0d 71 de 00 00 	mov    0xde71(%rip),%r9        # ffffffff80010308 <pmm_info+0x8>
ffffffff80002497:	4c 3b 0d 72 de 00 00 	cmp    0xde72(%rip),%r9        # ffffffff80010310 <pmm_info+0x10>
{
ffffffff8000249e:	49 89 f8             	mov    %rdi,%r8
    if(pmm_info.usedpages >= pmm_info.totalpages)
ffffffff800024a1:	0f 83 82 00 00 00    	jae    ffffffff80002529 <pmm_allocpages+0x99>
        return NULL;
    
    uint64_t index = get_first_unset(pmm_info.bitmap, pmm_info.bitmap_size);
ffffffff800024a7:	48 8b 05 72 de 00 00 	mov    0xde72(%rip),%rax        # ffffffff80010320 <pmm_info+0x20>
ffffffff800024ae:	48 8b 3d 63 de 00 00 	mov    0xde63(%rip),%rdi        # ffffffff80010318 <pmm_info+0x18>
    for(uint64_t i = 0; i < size; i++)
ffffffff800024b5:	48 85 c0             	test   %rax,%rax
ffffffff800024b8:	74 39                	je     ffffffff800024f3 <pmm_allocpages+0x63>
ffffffff800024ba:	31 c9                	xor    %ecx,%ecx
ffffffff800024bc:	eb 0b                	jmp    ffffffff800024c9 <pmm_allocpages+0x39>
ffffffff800024be:	66 90                	xchg   %ax,%ax
ffffffff800024c0:	48 83 c1 01          	add    $0x1,%rcx
ffffffff800024c4:	48 39 c8             	cmp    %rcx,%rax
ffffffff800024c7:	74 67                	je     ffffffff80002530 <pmm_allocpages+0xa0>
        if(bitmap[i] != 0xff)
ffffffff800024c9:	0f b6 14 0f          	movzbl (%rdi,%rcx,1),%edx
ffffffff800024cd:	80 fa ff             	cmp    $0xff,%dl
ffffffff800024d0:	74 ee                	je     ffffffff800024c0 <pmm_allocpages+0x30>
                if(!(bitmap[i] & (1 << j)))
ffffffff800024d2:	0f b6 f2             	movzbl %dl,%esi
ffffffff800024d5:	83 e2 01             	and    $0x1,%edx
            for(uint64_t j = 0; j < 8; j++)
ffffffff800024d8:	ba 00 00 00 00       	mov    $0x0,%edx
                if(!(bitmap[i] & (1 << j)))
ffffffff800024dd:	74 10                	je     ffffffff800024ef <pmm_allocpages+0x5f>
ffffffff800024df:	90                   	nop
            for(uint64_t j = 0; j < 8; j++)
ffffffff800024e0:	48 83 c2 01          	add    $0x1,%rdx
ffffffff800024e4:	48 83 fa 08          	cmp    $0x8,%rdx
ffffffff800024e8:	74 d6                	je     ffffffff800024c0 <pmm_allocpages+0x30>
                if(!(bitmap[i] & (1 << j)))
ffffffff800024ea:	0f a3 d6             	bt     %edx,%esi
ffffffff800024ed:	72 f1                	jb     ffffffff800024e0 <pmm_allocpages+0x50>
                    return (i * 8) + j;
ffffffff800024ef:	48 8d 04 ca          	lea    (%rdx,%rcx,8),%rax
    for(uint64_t i = 0; i < count; i++)
ffffffff800024f3:	4d 85 c0             	test   %r8,%r8
ffffffff800024f6:	74 40                	je     ffffffff80002538 <pmm_allocpages+0xa8>
ffffffff800024f8:	31 d2                	xor    %edx,%edx
    return bitmap[bit/8] & (1 << (bit & 8));
ffffffff800024fa:	41 ba 01 00 00 00    	mov    $0x1,%r10d
    {
        if(bitmap_get(pmm_info.bitmap, i) == 1)
ffffffff80002500:	f6 07 01             	testb  $0x1,(%rdi)
ffffffff80002503:	74 24                	je     ffffffff80002529 <pmm_allocpages+0x99>
    for(uint64_t i = 0; i < count; i++)
ffffffff80002505:	48 83 c2 01          	add    $0x1,%rdx
ffffffff80002509:	49 39 d0             	cmp    %rdx,%r8
ffffffff8000250c:	74 2a                	je     ffffffff80002538 <pmm_allocpages+0xa8>
    return bitmap[bit/8] & (1 << (bit & 8));
ffffffff8000250e:	48 89 d1             	mov    %rdx,%rcx
ffffffff80002511:	45 89 d3             	mov    %r10d,%r11d
ffffffff80002514:	48 c1 e9 03          	shr    $0x3,%rcx
ffffffff80002518:	0f b6 34 0f          	movzbl (%rdi,%rcx,1),%esi
ffffffff8000251c:	89 d1                	mov    %edx,%ecx
ffffffff8000251e:	83 e1 08             	and    $0x8,%ecx
ffffffff80002521:	41 d3 e3             	shl    %cl,%r11d
        if(bitmap_get(pmm_info.bitmap, i) == 1)
ffffffff80002524:	44 85 de             	test   %r11d,%esi
ffffffff80002527:	75 dc                	jne    ffffffff80002505 <pmm_allocpages+0x75>
        return NULL;
ffffffff80002529:	31 c0                	xor    %eax,%eax
    }

    pmm_info.usedpages += count;

    return (void*)(index * PAGE_SIZE);
}
ffffffff8000252b:	c3                   	retq   
ffffffff8000252c:	0f 1f 40 00          	nopl   0x0(%rax)
    return 0;
ffffffff80002530:	31 c0                	xor    %eax,%eax
ffffffff80002532:	eb bf                	jmp    ffffffff800024f3 <pmm_allocpages+0x63>
ffffffff80002534:	0f 1f 40 00          	nopl   0x0(%rax)
    pmm_info.usedpages += count;
ffffffff80002538:	4d 01 c1             	add    %r8,%r9
    return (void*)(index * PAGE_SIZE);
ffffffff8000253b:	48 c1 e0 0c          	shl    $0xc,%rax
    pmm_info.usedpages += count;
ffffffff8000253f:	4c 89 0d c2 dd 00 00 	mov    %r9,0xddc2(%rip)        # ffffffff80010308 <pmm_info+0x8>
    return (void*)(index * PAGE_SIZE);
ffffffff80002546:	c3                   	retq   
ffffffff80002547:	66 0f 1f 84 00 00 00 	nopw   0x0(%rax,%rax,1)
ffffffff8000254e:	00 00 

ffffffff80002550 <pmm_freepages>:

uint64_t pmm_freepages(void* page, uint64_t count)
{
    uint64_t pg = (uint64_t)page;

    for(uint64_t i=0; i < count; i++)
ffffffff80002550:	48 85 f6             	test   %rsi,%rsi
ffffffff80002553:	74 44                	je     ffffffff80002599 <pmm_freepages+0x49>
ffffffff80002555:	45 31 c0             	xor    %r8d,%r8d
    bitmap[bit / 8] &= ~(1 << (bit % 8));
ffffffff80002558:	41 b9 01 00 00 00    	mov    $0x1,%r9d
ffffffff8000255e:	66 90                	xchg   %ax,%ax
    uint64_t index = (uint64_t)page / PAGE_SIZE;
ffffffff80002560:	48 89 f9             	mov    %rdi,%rcx
    bitmap[bit / 8] &= ~(1 << (bit % 8));
ffffffff80002563:	48 89 f8             	mov    %rdi,%rax
ffffffff80002566:	44 89 ca             	mov    %r9d,%edx
    for(uint64_t i=0; i < count; i++)
ffffffff80002569:	49 83 c0 01          	add    $0x1,%r8
    uint64_t index = (uint64_t)page / PAGE_SIZE;
ffffffff8000256d:	48 c1 e9 0c          	shr    $0xc,%rcx
    bitmap[bit / 8] &= ~(1 << (bit % 8));
ffffffff80002571:	48 c1 e8 0f          	shr    $0xf,%rax
ffffffff80002575:	48 03 05 9c dd 00 00 	add    0xdd9c(%rip),%rax        # ffffffff80010318 <pmm_info+0x18>
    {
        pmm_freepage((void*)pg);
        pg += 0x1000;
ffffffff8000257c:	48 81 c7 00 10 00 00 	add    $0x1000,%rdi
    bitmap[bit / 8] &= ~(1 << (bit % 8));
ffffffff80002583:	83 e1 07             	and    $0x7,%ecx
ffffffff80002586:	d3 e2                	shl    %cl,%edx
ffffffff80002588:	f7 d2                	not    %edx
ffffffff8000258a:	20 10                	and    %dl,(%rax)
    pmm_info.usedpages--;
ffffffff8000258c:	48 83 2d 74 dd 00 00 	subq   $0x1,0xdd74(%rip)        # ffffffff80010308 <pmm_info+0x8>
ffffffff80002593:	01 
    for(uint64_t i=0; i < count; i++)
ffffffff80002594:	4c 39 c6             	cmp    %r8,%rsi
ffffffff80002597:	75 c7                	jne    ffffffff80002560 <pmm_freepages+0x10>
    }

    return 0;
}
ffffffff80002599:	31 c0                	xor    %eax,%eax
ffffffff8000259b:	c3                   	retq   
ffffffff8000259c:	0f 1f 40 00          	nopl   0x0(%rax)

ffffffff800025a0 <pmm_get_free_memory>:

uint64_t pmm_get_free_memory()
{
    return (pmm_info.totalpages - pmm_info.usedpages) * PAGE_SIZE;
ffffffff800025a0:	48 8b 05 69 dd 00 00 	mov    0xdd69(%rip),%rax        # ffffffff80010310 <pmm_info+0x10>
ffffffff800025a7:	48 2b 05 5a dd 00 00 	sub    0xdd5a(%rip),%rax        # ffffffff80010308 <pmm_info+0x8>
ffffffff800025ae:	48 c1 e0 0c          	shl    $0xc,%rax
}
ffffffff800025b2:	c3                   	retq   
ffffffff800025b3:	66 66 2e 0f 1f 84 00 	data16 nopw %cs:0x0(%rax,%rax,1)
ffffffff800025ba:	00 00 00 00 
ffffffff800025be:	66 90                	xchg   %ax,%ax

ffffffff800025c0 <pmm_get_total_memory>:

uint64_t pmm_get_total_memory()
{   
    return (pmm_info.totalpages) * PAGE_SIZE;
ffffffff800025c0:	48 8b 05 49 dd 00 00 	mov    0xdd49(%rip),%rax        # ffffffff80010310 <pmm_info+0x10>
ffffffff800025c7:	48 c1 e0 0c          	shl    $0xc,%rax
ffffffff800025cb:	c3                   	retq   

ffffffff800025cc <pmm_init.cold>:
    pmm_info.totalpages = pmm_info.totalmem / 4096;
ffffffff800025cc:	48 89 f8             	mov    %rdi,%rax
ffffffff800025cf:	48 c1 e8 0c          	shr    $0xc,%rax
    pmm_info.usedpages = pmm_info.totalpages;
ffffffff800025d3:	48 89 05 2e dd 00 00 	mov    %rax,0xdd2e(%rip)        # ffffffff80010308 <pmm_info+0x8>
    pmm_info.totalpages = pmm_info.totalmem / 4096;
ffffffff800025da:	48 89 05 2f dd 00 00 	mov    %rax,0xdd2f(%rip)        # ffffffff80010310 <pmm_info+0x10>
    pmm_info.bitmap_size = (pmm_info.totalpages / 8) + 1;
ffffffff800025e1:	48 89 f8             	mov    %rdi,%rax
ffffffff800025e4:	48 c1 e8 0f          	shr    $0xf,%rax
ffffffff800025e8:	48 83 c0 01          	add    $0x1,%rax
ffffffff800025ec:	48 89 05 2d dd 00 00 	mov    %rax,0xdd2d(%rip)        # ffffffff80010320 <pmm_info+0x20>
    if(pmm_info.bitmap_size > current_entry->length) 
ffffffff800025f3:	48 8b 04 25 08 00 00 	mov    0x8,%rax
ffffffff800025fa:	00 
ffffffff800025fb:	0f 0b                	ud2    
ffffffff800025fd:	0f 1f 00             	nopl   (%rax)

ffffffff80002600 <vmm_create_page_table>:
struct PageTable* kernel_cr3 = {0};

uint64_t magic = 0xdeadbeef;

struct PageTable* vmm_create_page_table()
{
ffffffff80002600:	55                   	push   %rbp
    void* page = pmm_allocpage();   //get a page
ffffffff80002601:	31 c0                	xor    %eax,%eax
{
ffffffff80002603:	48 89 e5             	mov    %rsp,%rbp
    void* page = pmm_allocpage();   //get a page
ffffffff80002606:	e8 75 fd ff ff       	callq  ffffffff80002380 <pmm_allocpage>
    if(page == NULL) return NULL;   //If it's null, we can't continue
ffffffff8000260b:	48 85 c0             	test   %rax,%rax
ffffffff8000260e:	74 2a                	je     ffffffff8000263a <vmm_create_page_table+0x3a>


static inline void* memset(void* s, uint64_t c, uint64_t len)
{
    unsigned char* p=(uint8_t*)s;
    while(len--)
ffffffff80002610:	48 8d 88 00 10 00 00 	lea    0x1000(%rax),%rcx
ffffffff80002617:	48 89 c2             	mov    %rax,%rdx
ffffffff8000261a:	66 0f 1f 44 00 00    	nopw   0x0(%rax,%rax,1)
    {
        *p++ = (unsigned char)c;
ffffffff80002620:	48 83 c2 01          	add    $0x1,%rdx
ffffffff80002624:	c6 42 ff 00          	movb   $0x0,-0x1(%rdx)
    while(len--)
ffffffff80002628:	48 39 ca             	cmp    %rcx,%rdx
ffffffff8000262b:	75 f3                	jne    ffffffff80002620 <vmm_create_page_table+0x20>
ffffffff8000262d:	48 ba 00 00 00 00 00 	movabs $0xffff800000000000,%rdx
ffffffff80002634:	80 ff ff 
ffffffff80002637:	48 01 d0             	add    %rdx,%rax

    memset((uint8_t*)page, 0, 4096);    //clear the page
    return (struct PageTable*)phys_to_hh_data((uint64_t)page);
    
    //return (struct PageTable*)phys_to_hh_data((uint64_t)page);
}
ffffffff8000263a:	5d                   	pop    %rbp
ffffffff8000263b:	c3                   	retq   
ffffffff8000263c:	0f 1f 40 00          	nopl   0x0(%rax)

ffffffff80002640 <vmm_map_2Mpage>:
        return (struct PageTable*)(pagemap->entry[index] & (~0x1ff));
    }
}

void vmm_map_2Mpage(struct PageTable* pagetable, uint64_t virtual, uint64_t physical, uint64_t flags)
{
ffffffff80002640:	55                   	push   %rbp
ffffffff80002641:	48 89 e5             	mov    %rsp,%rbp
ffffffff80002644:	41 57                	push   %r15
ffffffff80002646:	41 56                	push   %r14
    uint64_t index2, index3, index4;
    vaddr >>= 12;
    //index1 = vaddr & 0x1ff;
    vaddr >>= 9;
    index2 = vaddr & 0x1ff;
    vaddr >>= 9;
ffffffff80002648:	49 89 f6             	mov    %rsi,%r14
{
ffffffff8000264b:	41 55                	push   %r13
    vaddr >>= 9;
ffffffff8000264d:	49 89 f5             	mov    %rsi,%r13
    index3 = vaddr & 0x1ff;
    vaddr >>= 9;
ffffffff80002650:	48 c1 ee 27          	shr    $0x27,%rsi
{
ffffffff80002654:	41 54                	push   %r12
    index4 = vaddr & 0x1ff;
ffffffff80002656:	81 e6 ff 01 00 00    	and    $0x1ff,%esi
    vaddr >>= 9;
ffffffff8000265c:	49 c1 ed 15          	shr    $0x15,%r13
{
ffffffff80002660:	49 89 d4             	mov    %rdx,%r12
ffffffff80002663:	53                   	push   %rbx
    vaddr >>= 9;
ffffffff80002664:	49 c1 ee 1e          	shr    $0x1e,%r14
{
ffffffff80002668:	48 89 cb             	mov    %rcx,%rbx
    index2 = vaddr & 0x1ff;
ffffffff8000266b:	41 81 e5 ff 01 00 00 	and    $0x1ff,%r13d
    index3 = vaddr & 0x1ff;
ffffffff80002672:	41 81 e6 ff 01 00 00 	and    $0x1ff,%r14d
{
ffffffff80002679:	48 83 ec 18          	sub    $0x18,%rsp
    if(pagemap->entry[index] & 1)
ffffffff8000267d:	48 8b 04 f7          	mov    (%rdi,%rsi,8),%rax
ffffffff80002681:	a8 01                	test   $0x1,%al
ffffffff80002683:	74 33                	je     ffffffff800026b8 <vmm_map_2Mpage+0x78>
        return (struct PageTable*)(pagemap->entry[index] & (~0x1ff));
ffffffff80002685:	48 25 00 fe ff ff    	and    $0xfffffffffffffe00,%rax
ffffffff8000268b:	49 89 c7             	mov    %rax,%r15
    if(pagemap->entry[index] & 1)
ffffffff8000268e:	4a 8b 04 f0          	mov    (%rax,%r14,8),%rax
ffffffff80002692:	a8 01                	test   $0x1,%al
ffffffff80002694:	74 72                	je     ffffffff80002708 <vmm_map_2Mpage+0xc8>

    PML4 = pagetable;
    PML3 = vmm_get_pagemap(PML4, index4, flags);
    PML2 = vmm_get_pagemap(PML3, index3, flags);

    PML2->entry[index2] = physical | flags | PTE_PAGESIZE;
ffffffff80002696:	4c 09 e3             	or     %r12,%rbx
        return (struct PageTable*)(pagemap->entry[index] & (~0x1ff));
ffffffff80002699:	48 25 00 fe ff ff    	and    $0xfffffffffffffe00,%rax
    PML2->entry[index2] = physical | flags | PTE_PAGESIZE;
ffffffff8000269f:	80 cb 80             	or     $0x80,%bl
ffffffff800026a2:	4a 89 1c e8          	mov    %rbx,(%rax,%r13,8)
}
ffffffff800026a6:	48 83 c4 18          	add    $0x18,%rsp
ffffffff800026aa:	5b                   	pop    %rbx
ffffffff800026ab:	41 5c                	pop    %r12
ffffffff800026ad:	41 5d                	pop    %r13
ffffffff800026af:	41 5e                	pop    %r14
ffffffff800026b1:	41 5f                	pop    %r15
ffffffff800026b3:	5d                   	pop    %rbp
ffffffff800026b4:	c3                   	retq   
ffffffff800026b5:	0f 1f 00             	nopl   (%rax)
    void* page = pmm_allocpage();   //get a page
ffffffff800026b8:	31 c0                	xor    %eax,%eax
ffffffff800026ba:	48 89 7d c8          	mov    %rdi,-0x38(%rbp)
ffffffff800026be:	49 89 f7             	mov    %rsi,%r15
ffffffff800026c1:	e8 ba fc ff ff       	callq  ffffffff80002380 <pmm_allocpage>
    if(page == NULL) return NULL;   //If it's null, we can't continue
ffffffff800026c6:	4c 8b 45 c8          	mov    -0x38(%rbp),%r8
ffffffff800026ca:	48 85 c0             	test   %rax,%rax
ffffffff800026cd:	0f 84 7d 00 00 00    	je     ffffffff80002750 <vmm_map_2Mpage+0x110>
ffffffff800026d3:	48 8d 88 00 10 00 00 	lea    0x1000(%rax),%rcx
ffffffff800026da:	48 89 c2             	mov    %rax,%rdx
ffffffff800026dd:	0f 1f 00             	nopl   (%rax)
        *p++ = (unsigned char)c;
ffffffff800026e0:	48 83 c2 01          	add    $0x1,%rdx
ffffffff800026e4:	c6 42 ff 00          	movb   $0x0,-0x1(%rdx)
    while(len--)
ffffffff800026e8:	48 39 ca             	cmp    %rcx,%rdx
ffffffff800026eb:	75 f3                	jne    ffffffff800026e0 <vmm_map_2Mpage+0xa0>
ffffffff800026ed:	48 ba 00 00 00 00 00 	movabs $0xffff800000000000,%rdx
ffffffff800026f4:	80 ff ff 
        if(!newentry) printf("Null page allocated!\n");
ffffffff800026f7:	48 01 d0             	add    %rdx,%rax
ffffffff800026fa:	74 54                	je     ffffffff80002750 <vmm_map_2Mpage+0x110>
        pagemap->entry[index] = newentry | flags;
ffffffff800026fc:	48 09 d8             	or     %rbx,%rax
ffffffff800026ff:	4b 89 04 f8          	mov    %rax,(%r8,%r15,8)
ffffffff80002703:	eb 80                	jmp    ffffffff80002685 <vmm_map_2Mpage+0x45>
ffffffff80002705:	0f 1f 00             	nopl   (%rax)
    void* page = pmm_allocpage();   //get a page
ffffffff80002708:	31 c0                	xor    %eax,%eax
ffffffff8000270a:	e8 71 fc ff ff       	callq  ffffffff80002380 <pmm_allocpage>
    if(page == NULL) return NULL;   //If it's null, we can't continue
ffffffff8000270f:	48 85 c0             	test   %rax,%rax
ffffffff80002712:	74 5c                	je     ffffffff80002770 <vmm_map_2Mpage+0x130>
ffffffff80002714:	48 8d 88 00 10 00 00 	lea    0x1000(%rax),%rcx
ffffffff8000271b:	48 89 c2             	mov    %rax,%rdx
ffffffff8000271e:	66 90                	xchg   %ax,%ax
        *p++ = (unsigned char)c;
ffffffff80002720:	48 83 c2 01          	add    $0x1,%rdx
ffffffff80002724:	c6 42 ff 00          	movb   $0x0,-0x1(%rdx)
    while(len--)
ffffffff80002728:	48 39 d1             	cmp    %rdx,%rcx
ffffffff8000272b:	75 f3                	jne    ffffffff80002720 <vmm_map_2Mpage+0xe0>
ffffffff8000272d:	48 ba 00 00 00 00 00 	movabs $0xffff800000000000,%rdx
ffffffff80002734:	80 ff ff 
        if(!newentry) printf("Null page allocated!\n");
ffffffff80002737:	48 01 d0             	add    %rdx,%rax
ffffffff8000273a:	74 34                	je     ffffffff80002770 <vmm_map_2Mpage+0x130>
        pagemap->entry[index] = newentry | flags;
ffffffff8000273c:	48 09 d8             	or     %rbx,%rax
ffffffff8000273f:	4b 89 04 f7          	mov    %rax,(%r15,%r14,8)
ffffffff80002743:	e9 4e ff ff ff       	jmpq   ffffffff80002696 <vmm_map_2Mpage+0x56>
ffffffff80002748:	0f 1f 84 00 00 00 00 	nopl   0x0(%rax,%rax,1)
ffffffff8000274f:	00 
        if(!newentry) printf("Null page allocated!\n");
ffffffff80002750:	48 c7 c7 62 58 00 80 	mov    $0xffffffff80005862,%rdi
ffffffff80002757:	31 c0                	xor    %eax,%eax
ffffffff80002759:	4c 89 45 c8          	mov    %r8,-0x38(%rbp)
ffffffff8000275d:	e8 4e 18 00 00       	callq  ffffffff80003fb0 <printf_>
ffffffff80002762:	4c 8b 45 c8          	mov    -0x38(%rbp),%r8
ffffffff80002766:	48 89 d8             	mov    %rbx,%rax
ffffffff80002769:	eb 94                	jmp    ffffffff800026ff <vmm_map_2Mpage+0xbf>
ffffffff8000276b:	0f 1f 44 00 00       	nopl   0x0(%rax,%rax,1)
ffffffff80002770:	48 c7 c7 62 58 00 80 	mov    $0xffffffff80005862,%rdi
ffffffff80002777:	31 c0                	xor    %eax,%eax
ffffffff80002779:	e8 32 18 00 00       	callq  ffffffff80003fb0 <printf_>
ffffffff8000277e:	48 89 d8             	mov    %rbx,%rax
ffffffff80002781:	eb bc                	jmp    ffffffff8000273f <vmm_map_2Mpage+0xff>
ffffffff80002783:	66 66 2e 0f 1f 84 00 	data16 nopw %cs:0x0(%rax,%rax,1)
ffffffff8000278a:	00 00 00 00 
ffffffff8000278e:	66 90                	xchg   %ax,%ax

ffffffff80002790 <vmm_map_4Kpage>:

void vmm_map_4Kpage(struct PageTable* pagetable, uint64_t virtual, uint64_t physical, uint64_t flags)
{
ffffffff80002790:	55                   	push   %rbp
    uint64_t index1, index2, index3, index4;
    vaddr >>= 12;
    index1 = vaddr & 0x1ff;
    vaddr >>= 9;
    index2 = vaddr & 0x1ff;
    vaddr >>= 9;
ffffffff80002791:	49 89 f0             	mov    %rsi,%r8
ffffffff80002794:	49 c1 e8 1e          	shr    $0x1e,%r8
    index3 = vaddr & 0x1ff;
ffffffff80002798:	41 81 e0 ff 01 00 00 	and    $0x1ff,%r8d
{
ffffffff8000279f:	48 89 e5             	mov    %rsp,%rbp
ffffffff800027a2:	41 57                	push   %r15
ffffffff800027a4:	41 56                	push   %r14
ffffffff800027a6:	41 55                	push   %r13
ffffffff800027a8:	49 89 d5             	mov    %rdx,%r13
ffffffff800027ab:	41 54                	push   %r12
    vaddr >>= 12;
ffffffff800027ad:	49 89 f4             	mov    %rsi,%r12
{
ffffffff800027b0:	53                   	push   %rbx
    vaddr >>= 9;
ffffffff800027b1:	48 89 f3             	mov    %rsi,%rbx
    vaddr >>= 9;
ffffffff800027b4:	48 c1 ee 27          	shr    $0x27,%rsi
    vaddr >>= 12;
ffffffff800027b8:	49 c1 ec 0c          	shr    $0xc,%r12
    index4 = vaddr & 0x1ff;
ffffffff800027bc:	81 e6 ff 01 00 00    	and    $0x1ff,%esi
    vaddr >>= 9;
ffffffff800027c2:	48 c1 eb 15          	shr    $0x15,%rbx
    index1 = vaddr & 0x1ff;
ffffffff800027c6:	41 81 e4 ff 01 00 00 	and    $0x1ff,%r12d
    index2 = vaddr & 0x1ff;
ffffffff800027cd:	81 e3 ff 01 00 00    	and    $0x1ff,%ebx
{
ffffffff800027d3:	48 83 ec 18          	sub    $0x18,%rsp
    if(pagemap->entry[index] & 1)
ffffffff800027d7:	48 8b 04 f7          	mov    (%rdi,%rsi,8),%rax
ffffffff800027db:	a8 01                	test   $0x1,%al
ffffffff800027dd:	74 49                	je     ffffffff80002828 <vmm_map_4Kpage+0x98>
        return (struct PageTable*)(pagemap->entry[index] & (~0x1ff));
ffffffff800027df:	48 25 00 fe ff ff    	and    $0xfffffffffffffe00,%rax
ffffffff800027e5:	49 89 c6             	mov    %rax,%r14
    if(pagemap->entry[index] & 1)
ffffffff800027e8:	4a 8b 04 c0          	mov    (%rax,%r8,8),%rax
ffffffff800027ec:	a8 01                	test   $0x1,%al
ffffffff800027ee:	0f 84 f4 00 00 00    	je     ffffffff800028e8 <vmm_map_4Kpage+0x158>
        return (struct PageTable*)(pagemap->entry[index] & (~0x1ff));
ffffffff800027f4:	48 25 00 fe ff ff    	and    $0xfffffffffffffe00,%rax
ffffffff800027fa:	49 89 c6             	mov    %rax,%r14
    if(pagemap->entry[index] & 1)
ffffffff800027fd:	48 8b 04 d8          	mov    (%rax,%rbx,8),%rax
ffffffff80002801:	a8 01                	test   $0x1,%al
ffffffff80002803:	0f 84 87 00 00 00    	je     ffffffff80002890 <vmm_map_4Kpage+0x100>
    PML4 = pagetable;
    PML3 = vmm_get_pagemap(PML4, index4, flags);
    PML2 = vmm_get_pagemap(PML3, index3, flags);
    PML1 = vmm_get_pagemap(PML2, index2, flags);

    PML1->entry[index1] = physical | flags;
ffffffff80002809:	4c 09 e9             	or     %r13,%rcx
        return (struct PageTable*)(pagemap->entry[index] & (~0x1ff));
ffffffff8000280c:	48 25 00 fe ff ff    	and    $0xfffffffffffffe00,%rax
    PML1->entry[index1] = physical | flags;
ffffffff80002812:	4a 89 0c e0          	mov    %rcx,(%rax,%r12,8)
    //serial_printf(SERIAL_PORT1, "%p, %p, %p, %p\n", PML4->entry[index4], PML3->entry[index3], PML2->entry[index2], PML1->entry[index1]);
    //serial_printf(SERIAL_PORT1, "%p, %d, %d, %d, %d, %p\n", virtual, index4, index3, index2, index1, physical);

    //vmm_flush_tlb((void*)virtual);

}
ffffffff80002816:	48 83 c4 18          	add    $0x18,%rsp
ffffffff8000281a:	5b                   	pop    %rbx
ffffffff8000281b:	41 5c                	pop    %r12
ffffffff8000281d:	41 5d                	pop    %r13
ffffffff8000281f:	41 5e                	pop    %r14
ffffffff80002821:	41 5f                	pop    %r15
ffffffff80002823:	5d                   	pop    %rbp
ffffffff80002824:	c3                   	retq   
ffffffff80002825:	0f 1f 00             	nopl   (%rax)
    void* page = pmm_allocpage();   //get a page
ffffffff80002828:	31 c0                	xor    %eax,%eax
ffffffff8000282a:	48 89 4d c0          	mov    %rcx,-0x40(%rbp)
ffffffff8000282e:	49 89 ff             	mov    %rdi,%r15
ffffffff80002831:	49 89 f6             	mov    %rsi,%r14
ffffffff80002834:	4c 89 45 c8          	mov    %r8,-0x38(%rbp)
ffffffff80002838:	e8 43 fb ff ff       	callq  ffffffff80002380 <pmm_allocpage>
    if(page == NULL) return NULL;   //If it's null, we can't continue
ffffffff8000283d:	4c 8b 45 c8          	mov    -0x38(%rbp),%r8
ffffffff80002841:	48 8b 4d c0          	mov    -0x40(%rbp),%rcx
ffffffff80002845:	48 85 c0             	test   %rax,%rax
ffffffff80002848:	0f 84 f2 00 00 00    	je     ffffffff80002940 <vmm_map_4Kpage+0x1b0>
ffffffff8000284e:	48 8d b0 00 10 00 00 	lea    0x1000(%rax),%rsi
ffffffff80002855:	48 89 c2             	mov    %rax,%rdx
ffffffff80002858:	0f 1f 84 00 00 00 00 	nopl   0x0(%rax,%rax,1)
ffffffff8000285f:	00 
        *p++ = (unsigned char)c;
ffffffff80002860:	48 83 c2 01          	add    $0x1,%rdx
ffffffff80002864:	c6 42 ff 00          	movb   $0x0,-0x1(%rdx)
    while(len--)
ffffffff80002868:	48 39 f2             	cmp    %rsi,%rdx
ffffffff8000286b:	75 f3                	jne    ffffffff80002860 <vmm_map_4Kpage+0xd0>
ffffffff8000286d:	48 ba 00 00 00 00 00 	movabs $0xffff800000000000,%rdx
ffffffff80002874:	80 ff ff 
        if(!newentry) printf("Null page allocated!\n");
ffffffff80002877:	48 01 d0             	add    %rdx,%rax
ffffffff8000287a:	0f 84 c0 00 00 00    	je     ffffffff80002940 <vmm_map_4Kpage+0x1b0>
        pagemap->entry[index] = newentry | flags;
ffffffff80002880:	48 09 c8             	or     %rcx,%rax
ffffffff80002883:	4b 89 04 f7          	mov    %rax,(%r15,%r14,8)
ffffffff80002887:	e9 53 ff ff ff       	jmpq   ffffffff800027df <vmm_map_4Kpage+0x4f>
ffffffff8000288c:	0f 1f 40 00          	nopl   0x0(%rax)
    void* page = pmm_allocpage();   //get a page
ffffffff80002890:	31 c0                	xor    %eax,%eax
ffffffff80002892:	48 89 4d c8          	mov    %rcx,-0x38(%rbp)
ffffffff80002896:	e8 e5 fa ff ff       	callq  ffffffff80002380 <pmm_allocpage>
    if(page == NULL) return NULL;   //If it's null, we can't continue
ffffffff8000289b:	48 8b 4d c8          	mov    -0x38(%rbp),%rcx
ffffffff8000289f:	48 85 c0             	test   %rax,%rax
ffffffff800028a2:	0f 84 f0 00 00 00    	je     ffffffff80002998 <vmm_map_4Kpage+0x208>
ffffffff800028a8:	48 8d b0 00 10 00 00 	lea    0x1000(%rax),%rsi
ffffffff800028af:	48 89 c2             	mov    %rax,%rdx
ffffffff800028b2:	66 0f 1f 44 00 00    	nopw   0x0(%rax,%rax,1)
        *p++ = (unsigned char)c;
ffffffff800028b8:	48 83 c2 01          	add    $0x1,%rdx
ffffffff800028bc:	c6 42 ff 00          	movb   $0x0,-0x1(%rdx)
    while(len--)
ffffffff800028c0:	48 39 f2             	cmp    %rsi,%rdx
ffffffff800028c3:	75 f3                	jne    ffffffff800028b8 <vmm_map_4Kpage+0x128>
ffffffff800028c5:	48 ba 00 00 00 00 00 	movabs $0xffff800000000000,%rdx
ffffffff800028cc:	80 ff ff 
        if(!newentry) printf("Null page allocated!\n");
ffffffff800028cf:	48 01 d0             	add    %rdx,%rax
ffffffff800028d2:	0f 84 c0 00 00 00    	je     ffffffff80002998 <vmm_map_4Kpage+0x208>
        pagemap->entry[index] = newentry | flags;
ffffffff800028d8:	48 09 c8             	or     %rcx,%rax
ffffffff800028db:	49 89 04 de          	mov    %rax,(%r14,%rbx,8)
ffffffff800028df:	e9 25 ff ff ff       	jmpq   ffffffff80002809 <vmm_map_4Kpage+0x79>
ffffffff800028e4:	0f 1f 40 00          	nopl   0x0(%rax)
    void* page = pmm_allocpage();   //get a page
ffffffff800028e8:	31 c0                	xor    %eax,%eax
ffffffff800028ea:	48 89 4d c0          	mov    %rcx,-0x40(%rbp)
ffffffff800028ee:	4c 89 45 c8          	mov    %r8,-0x38(%rbp)
ffffffff800028f2:	e8 89 fa ff ff       	callq  ffffffff80002380 <pmm_allocpage>
    if(page == NULL) return NULL;   //If it's null, we can't continue
ffffffff800028f7:	4c 8b 45 c8          	mov    -0x38(%rbp),%r8
ffffffff800028fb:	48 8b 4d c0          	mov    -0x40(%rbp),%rcx
ffffffff800028ff:	48 85 c0             	test   %rax,%rax
ffffffff80002902:	74 6c                	je     ffffffff80002970 <vmm_map_4Kpage+0x1e0>
ffffffff80002904:	48 8d b0 00 10 00 00 	lea    0x1000(%rax),%rsi
ffffffff8000290b:	48 89 c2             	mov    %rax,%rdx
ffffffff8000290e:	66 90                	xchg   %ax,%ax
        *p++ = (unsigned char)c;
ffffffff80002910:	48 83 c2 01          	add    $0x1,%rdx
ffffffff80002914:	c6 42 ff 00          	movb   $0x0,-0x1(%rdx)
    while(len--)
ffffffff80002918:	48 39 d6             	cmp    %rdx,%rsi
ffffffff8000291b:	75 f3                	jne    ffffffff80002910 <vmm_map_4Kpage+0x180>
ffffffff8000291d:	48 ba 00 00 00 00 00 	movabs $0xffff800000000000,%rdx
ffffffff80002924:	80 ff ff 
        if(!newentry) printf("Null page allocated!\n");
ffffffff80002927:	48 01 d0             	add    %rdx,%rax
ffffffff8000292a:	74 44                	je     ffffffff80002970 <vmm_map_4Kpage+0x1e0>
        pagemap->entry[index] = newentry | flags;
ffffffff8000292c:	48 09 c8             	or     %rcx,%rax
ffffffff8000292f:	4b 89 04 c6          	mov    %rax,(%r14,%r8,8)
ffffffff80002933:	e9 bc fe ff ff       	jmpq   ffffffff800027f4 <vmm_map_4Kpage+0x64>
ffffffff80002938:	0f 1f 84 00 00 00 00 	nopl   0x0(%rax,%rax,1)
ffffffff8000293f:	00 
        if(!newentry) printf("Null page allocated!\n");
ffffffff80002940:	48 c7 c7 62 58 00 80 	mov    $0xffffffff80005862,%rdi
ffffffff80002947:	31 c0                	xor    %eax,%eax
ffffffff80002949:	48 89 4d c0          	mov    %rcx,-0x40(%rbp)
ffffffff8000294d:	4c 89 45 c8          	mov    %r8,-0x38(%rbp)
ffffffff80002951:	e8 5a 16 00 00       	callq  ffffffff80003fb0 <printf_>
ffffffff80002956:	48 8b 4d c0          	mov    -0x40(%rbp),%rcx
ffffffff8000295a:	4c 8b 45 c8          	mov    -0x38(%rbp),%r8
ffffffff8000295e:	48 89 c8             	mov    %rcx,%rax
ffffffff80002961:	e9 1d ff ff ff       	jmpq   ffffffff80002883 <vmm_map_4Kpage+0xf3>
ffffffff80002966:	66 2e 0f 1f 84 00 00 	nopw   %cs:0x0(%rax,%rax,1)
ffffffff8000296d:	00 00 00 
ffffffff80002970:	48 c7 c7 62 58 00 80 	mov    $0xffffffff80005862,%rdi
ffffffff80002977:	31 c0                	xor    %eax,%eax
ffffffff80002979:	48 89 4d c0          	mov    %rcx,-0x40(%rbp)
ffffffff8000297d:	4c 89 45 c8          	mov    %r8,-0x38(%rbp)
ffffffff80002981:	e8 2a 16 00 00       	callq  ffffffff80003fb0 <printf_>
ffffffff80002986:	48 8b 4d c0          	mov    -0x40(%rbp),%rcx
ffffffff8000298a:	4c 8b 45 c8          	mov    -0x38(%rbp),%r8
ffffffff8000298e:	48 89 c8             	mov    %rcx,%rax
ffffffff80002991:	eb 9c                	jmp    ffffffff8000292f <vmm_map_4Kpage+0x19f>
ffffffff80002993:	0f 1f 44 00 00       	nopl   0x0(%rax,%rax,1)
ffffffff80002998:	48 c7 c7 62 58 00 80 	mov    $0xffffffff80005862,%rdi
ffffffff8000299f:	31 c0                	xor    %eax,%eax
ffffffff800029a1:	48 89 4d c8          	mov    %rcx,-0x38(%rbp)
ffffffff800029a5:	e8 06 16 00 00       	callq  ffffffff80003fb0 <printf_>
ffffffff800029aa:	48 8b 4d c8          	mov    -0x38(%rbp),%rcx
ffffffff800029ae:	48 89 c8             	mov    %rcx,%rax
ffffffff800029b1:	e9 25 ff ff ff       	jmpq   ffffffff800028db <vmm_map_4Kpage+0x14b>
ffffffff800029b6:	66 2e 0f 1f 84 00 00 	nopw   %cs:0x0(%rax,%rax,1)
ffffffff800029bd:	00 00 00 

ffffffff800029c0 <vmm_unmap_page>:
    virtual >>= 9;
    index3 = virtual & 0x1ff;
    virtual >>= 9;
    index4 = virtual & 0x1ff;

    if(PML4->entry[index4] & 1)
ffffffff800029c0:	48 ba 00 00 00 00 00 	movabs $0xffff800000000000,%rdx
ffffffff800029c7:	80 ff ff 
{
ffffffff800029ca:	48 89 f0             	mov    %rsi,%rax
    if(PML4->entry[index4] & 1)
ffffffff800029cd:	48 01 d7             	add    %rdx,%rdi
    virtual >>= 9;
ffffffff800029d0:	48 89 f2             	mov    %rsi,%rdx
ffffffff800029d3:	48 c1 ea 27          	shr    $0x27,%rdx
    index4 = virtual & 0x1ff;
ffffffff800029d7:	81 e2 ff 01 00 00    	and    $0x1ff,%edx
    if(PML4->entry[index4] & 1)
ffffffff800029dd:	48 8b 14 d7          	mov    (%rdi,%rdx,8),%rdx
ffffffff800029e1:	f6 c2 01             	test   $0x1,%dl
ffffffff800029e4:	74 58                	je     ffffffff80002a3e <vmm_unmap_page+0x7e>
    virtual >>= 9;
ffffffff800029e6:	48 89 f1             	mov    %rsi,%rcx
    {
        PML3 = (struct PageTable*)((PML4->entry[index4] >> 12) * 4096);
        if(PML3->entry[index3] & 1)
ffffffff800029e9:	48 81 e2 00 f0 ff ff 	and    $0xfffffffffffff000,%rdx
    virtual >>= 9;
ffffffff800029f0:	48 c1 e9 1e          	shr    $0x1e,%rcx
    index3 = virtual & 0x1ff;
ffffffff800029f4:	81 e1 ff 01 00 00    	and    $0x1ff,%ecx
        if(PML3->entry[index3] & 1)
ffffffff800029fa:	48 8b 14 ca          	mov    (%rdx,%rcx,8),%rdx
ffffffff800029fe:	f6 c2 01             	test   $0x1,%dl
ffffffff80002a01:	74 3b                	je     ffffffff80002a3e <vmm_unmap_page+0x7e>
    virtual >>= 9;
ffffffff80002a03:	48 89 f1             	mov    %rsi,%rcx
        {
            PML2 = (struct PageTable*)((PML3->entry[index3] >> 12) * 4096);
            if(PML2->entry[index2] & 1)
ffffffff80002a06:	48 81 e2 00 f0 ff ff 	and    $0xfffffffffffff000,%rdx
    virtual >>= 9;
ffffffff80002a0d:	48 c1 e9 15          	shr    $0x15,%rcx
    index2 = virtual & 0x1ff;
ffffffff80002a11:	81 e1 ff 01 00 00    	and    $0x1ff,%ecx
            if(PML2->entry[index2] & 1)
ffffffff80002a17:	48 8b 14 ca          	mov    (%rdx,%rcx,8),%rdx
ffffffff80002a1b:	f6 c2 01             	test   $0x1,%dl
ffffffff80002a1e:	74 1e                	je     ffffffff80002a3e <vmm_unmap_page+0x7e>
    virtual >>= 12;
ffffffff80002a20:	48 c1 e8 0c          	shr    $0xc,%rax
            {
                PML1 = (struct PageTable*)((PML2->entry[index2] >> 12) * 4096);
ffffffff80002a24:	48 81 e2 00 f0 ff ff 	and    $0xfffffffffffff000,%rdx
    index1 = virtual & 0x1ff;
ffffffff80002a2b:	25 ff 01 00 00       	and    $0x1ff,%eax
                if(PML1->entry[index1] & 1)
ffffffff80002a30:	f6 04 c2 01          	testb  $0x1,(%rdx,%rax,8)
ffffffff80002a34:	74 08                	je     ffffffff80002a3e <vmm_unmap_page+0x7e>
                {
                    PML1->entry[index1] = 0x00;
ffffffff80002a36:	48 c7 04 c2 00 00 00 	movq   $0x0,(%rdx,%rax,8)
ffffffff80002a3d:	00 
                }
            }
        }
    }
}
ffffffff80002a3e:	c3                   	retq   
ffffffff80002a3f:	90                   	nop

ffffffff80002a40 <vmm_pagewalk>:

//returns a physical address for a given virtual address
uint64_t vmm_pagewalk(uint64_t vaddr, uint64_t* cr3)
{
ffffffff80002a40:	55                   	push   %rbp
    uint64_t* PML4 = (uint64_t*)(phys_to_hh_data((uint64_t)cr3));
    
    uint64_t index1, index2, index3, index4;
    vaddr >>= 12;
ffffffff80002a41:	49 89 f8             	mov    %rdi,%r8
    index1 = vaddr & 0x1ff;
    vaddr >>= 9;
ffffffff80002a44:	48 89 f9             	mov    %rdi,%rcx
    index2 = vaddr & 0x1ff;
    vaddr >>= 9;
ffffffff80002a47:	48 89 fa             	mov    %rdi,%rdx
    index3 = vaddr & 0x1ff;
    vaddr >>= 9;
ffffffff80002a4a:	48 c1 ef 27          	shr    $0x27,%rdi
{
ffffffff80002a4e:	48 89 f0             	mov    %rsi,%rax
    vaddr >>= 9;
ffffffff80002a51:	48 c1 ea 1e          	shr    $0x1e,%rdx
    index4 = vaddr & 0x1ff;
   
    uint64_t* PDPTE = (uint64_t*)((phys_to_hh_data(PML4[index4]) >> 12) * 4096);
ffffffff80002a55:	49 b9 00 00 00 00 00 	movabs $0xffff800000000000,%r9
ffffffff80002a5c:	80 ff ff 
    index4 = vaddr & 0x1ff;
ffffffff80002a5f:	48 89 fe             	mov    %rdi,%rsi
    index3 = vaddr & 0x1ff;
ffffffff80002a62:	81 e2 ff 01 00 00    	and    $0x1ff,%edx
    vaddr >>= 9;
ffffffff80002a68:	48 c1 e9 15          	shr    $0x15,%rcx
    uint64_t* PTE = (uint64_t*)((phys_to_hh_data(PDE[index2]) >> 12) * 4096);
    uint64_t* PD = (uint64_t*)((phys_to_hh_data(PTE[index1]) >> 12) * 4096);

    uint64_t pageaddr = hh_data_to_phys((uint64_t)PD);
    
    printf("%d  %d  %d  %d  %p\n", index4, index3, index2, index1, pageaddr);
ffffffff80002a6c:	48 c7 c7 78 58 00 80 	mov    $0xffffffff80005878,%rdi
{
ffffffff80002a73:	48 89 e5             	mov    %rsp,%rbp
ffffffff80002a76:	53                   	push   %rbx
    index4 = vaddr & 0x1ff;
ffffffff80002a77:	81 e6 ff 01 00 00    	and    $0x1ff,%esi
    vaddr >>= 12;
ffffffff80002a7d:	49 c1 e8 0c          	shr    $0xc,%r8
    uint64_t* PDPTE = (uint64_t*)((phys_to_hh_data(PML4[index4]) >> 12) * 4096);
ffffffff80002a81:	48 8d 04 f0          	lea    (%rax,%rsi,8),%rax
    index2 = vaddr & 0x1ff;
ffffffff80002a85:	81 e1 ff 01 00 00    	and    $0x1ff,%ecx
    index1 = vaddr & 0x1ff;
ffffffff80002a8b:	41 81 e0 ff 01 00 00 	and    $0x1ff,%r8d
{
ffffffff80002a92:	48 83 ec 08          	sub    $0x8,%rsp
ffffffff80002a96:	4a 8b 1c 08          	mov    (%rax,%r9,1),%rbx
ffffffff80002a9a:	4c 01 cb             	add    %r9,%rbx
ffffffff80002a9d:	48 89 d8             	mov    %rbx,%rax
    uint64_t* PDE = (uint64_t*)((phys_to_hh_data(PDPTE[index3]) >> 12) * 4096);
ffffffff80002aa0:	48 25 00 f0 ff ff    	and    $0xfffffffffffff000,%rax
ffffffff80002aa6:	48 8b 1c d0          	mov    (%rax,%rdx,8),%rbx
ffffffff80002aaa:	4c 01 cb             	add    %r9,%rbx
ffffffff80002aad:	48 89 d8             	mov    %rbx,%rax
    uint64_t* PTE = (uint64_t*)((phys_to_hh_data(PDE[index2]) >> 12) * 4096);
ffffffff80002ab0:	48 25 00 f0 ff ff    	and    $0xfffffffffffff000,%rax
ffffffff80002ab6:	48 8b 1c c8          	mov    (%rax,%rcx,8),%rbx
ffffffff80002aba:	4c 01 cb             	add    %r9,%rbx
ffffffff80002abd:	48 89 d8             	mov    %rbx,%rax
    uint64_t* PD = (uint64_t*)((phys_to_hh_data(PTE[index1]) >> 12) * 4096);
ffffffff80002ac0:	48 25 00 f0 ff ff    	and    $0xfffffffffffff000,%rax
ffffffff80002ac6:	4e 03 0c c0          	add    (%rax,%r8,8),%r9
    return addr - 0xFFFF800000000000;
ffffffff80002aca:	48 b8 00 00 00 00 00 	movabs $0x800000000000,%rax
ffffffff80002ad1:	80 00 00 
ffffffff80002ad4:	49 81 e1 00 f0 ff ff 	and    $0xfffffffffffff000,%r9
ffffffff80002adb:	49 8d 1c 01          	lea    (%r9,%rax,1),%rbx
    printf("%d  %d  %d  %d  %p\n", index4, index3, index2, index1, pageaddr);
ffffffff80002adf:	31 c0                	xor    %eax,%eax
ffffffff80002ae1:	49 89 d9             	mov    %rbx,%r9
ffffffff80002ae4:	e8 c7 14 00 00       	callq  ffffffff80003fb0 <printf_>
    
    
    pageaddr >>= 12;
    pageaddr *= 4096;
ffffffff80002ae9:	48 89 d8             	mov    %rbx,%rax

    return pageaddr;
}
ffffffff80002aec:	48 8b 5d f8          	mov    -0x8(%rbp),%rbx
ffffffff80002af0:	c9                   	leaveq 
ffffffff80002af1:	c3                   	retq   
ffffffff80002af2:	66 66 2e 0f 1f 84 00 	data16 nopw %cs:0x0(%rax,%rax,1)
ffffffff80002af9:	00 00 00 00 
ffffffff80002afd:	0f 1f 00             	nopl   (%rax)

ffffffff80002b00 <vmm_PMLwalk>:

void vmm_PMLwalk(struct PageTable* pagetable)
{
ffffffff80002b00:	55                   	push   %rbp
ffffffff80002b01:	48 89 fa             	mov    %rdi,%rdx
    struct PageTable* PML4 = pagetable;
    struct PageTable* PML3 = NULL;
    struct PageTable* PML2 = NULL;
    struct PageTable* PML1 = NULL;

    serial_printf(SERIAL_PORT1, "Begin Pagewalk\r\nPML 4 %p\r\n", (uint64_t)PML4);
ffffffff80002b04:	48 c7 c6 8c 58 00 80 	mov    $0xffffffff8000588c,%rsi
ffffffff80002b0b:	31 c0                	xor    %eax,%eax
{
ffffffff80002b0d:	48 89 e5             	mov    %rsp,%rbp
ffffffff80002b10:	41 57                	push   %r15
ffffffff80002b12:	41 56                	push   %r14
ffffffff80002b14:	41 55                	push   %r13
ffffffff80002b16:	41 54                	push   %r12
ffffffff80002b18:	53                   	push   %rbx
ffffffff80002b19:	48 83 ec 28          	sub    $0x28,%rsp
ffffffff80002b1d:	48 89 7d b8          	mov    %rdi,-0x48(%rbp)
    serial_printf(SERIAL_PORT1, "Begin Pagewalk\r\nPML 4 %p\r\n", (uint64_t)PML4);
ffffffff80002b21:	bf f8 03 00 00       	mov    $0x3f8,%edi
ffffffff80002b26:	e8 45 16 00 00       	callq  ffffffff80004170 <serial_printf>
    for(uint64_t i = 0; i < 512; i++)
ffffffff80002b2b:	48 c7 45 c0 00 00 00 	movq   $0x0,-0x40(%rbp)
ffffffff80002b32:	00 
ffffffff80002b33:	eb 15                	jmp    ffffffff80002b4a <vmm_PMLwalk+0x4a>
ffffffff80002b35:	48 83 45 c0 01       	addq   $0x1,-0x40(%rbp)
ffffffff80002b3a:	48 8b 45 c0          	mov    -0x40(%rbp),%rax
ffffffff80002b3e:	48 3d 00 02 00 00    	cmp    $0x200,%rax
ffffffff80002b44:	0f 84 19 01 00 00    	je     ffffffff80002c63 <vmm_PMLwalk+0x163>
    {
        if(pagetable->entry[i] & 0x01)
ffffffff80002b4a:	48 8b 45 b8          	mov    -0x48(%rbp),%rax
ffffffff80002b4e:	48 8b 5d c0          	mov    -0x40(%rbp),%rbx
ffffffff80002b52:	4c 8b 04 d8          	mov    (%rax,%rbx,8),%r8
ffffffff80002b56:	41 f6 c0 01          	test   $0x1,%r8b
ffffffff80002b5a:	74 d9                	je     ffffffff80002b35 <vmm_PMLwalk+0x35>
            {
                serial_printf(SERIAL_PORT1, "4,%p,%d,%p\r\n",pagetable, i, pagetable->entry[i]);
ffffffff80002b5c:	49 89 de             	mov    %rbx,%r14
ffffffff80002b5f:	48 89 d9             	mov    %rbx,%rcx
ffffffff80002b62:	48 89 c2             	mov    %rax,%rdx
ffffffff80002b65:	48 89 c3             	mov    %rax,%rbx
ffffffff80002b68:	48 c7 c6 a7 58 00 80 	mov    $0xffffffff800058a7,%rsi
ffffffff80002b6f:	bf f8 03 00 00       	mov    $0x3f8,%edi
ffffffff80002b74:	31 c0                	xor    %eax,%eax
ffffffff80002b76:	e8 f5 15 00 00       	callq  ffffffff80004170 <serial_printf>
                PML3 = (struct PageTable*)(pagetable->entry[i] & ~(0x1FF));
ffffffff80002b7b:	4e 8b 34 f3          	mov    (%rbx,%r14,8),%r14
                for(uint64_t j = 0; j < 512; j++)
ffffffff80002b7f:	48 c7 45 c8 00 00 00 	movq   $0x0,-0x38(%rbp)
ffffffff80002b86:	00 
                PML3 = (struct PageTable*)(pagetable->entry[i] & ~(0x1FF));
ffffffff80002b87:	49 81 e6 00 fe ff ff 	and    $0xfffffffffffffe00,%r14
                for(uint64_t j = 0; j < 512; j++)
ffffffff80002b8e:	eb 11                	jmp    ffffffff80002ba1 <vmm_PMLwalk+0xa1>
ffffffff80002b90:	48 83 45 c8 01       	addq   $0x1,-0x38(%rbp)
ffffffff80002b95:	48 8b 45 c8          	mov    -0x38(%rbp),%rax
ffffffff80002b99:	48 3d 00 02 00 00    	cmp    $0x200,%rax
ffffffff80002b9f:	74 94                	je     ffffffff80002b35 <vmm_PMLwalk+0x35>
                {
                    if(PML3->entry[j] & 0x01)
ffffffff80002ba1:	48 8b 45 c8          	mov    -0x38(%rbp),%rax
ffffffff80002ba5:	4d 8b 04 c6          	mov    (%r14,%rax,8),%r8
ffffffff80002ba9:	41 f6 c0 01          	test   $0x1,%r8b
ffffffff80002bad:	74 e1                	je     ffffffff80002b90 <vmm_PMLwalk+0x90>
                    {
                        serial_printf(SERIAL_PORT1, "3,%p,%d,%p\r\n",PML3, j, PML3->entry[j]);
ffffffff80002baf:	48 89 c3             	mov    %rax,%rbx
ffffffff80002bb2:	48 89 c1             	mov    %rax,%rcx
ffffffff80002bb5:	4c 89 f2             	mov    %r14,%rdx
ffffffff80002bb8:	31 c0                	xor    %eax,%eax
ffffffff80002bba:	48 c7 c6 b4 58 00 80 	mov    $0xffffffff800058b4,%rsi
ffffffff80002bc1:	bf f8 03 00 00       	mov    $0x3f8,%edi
ffffffff80002bc6:	e8 a5 15 00 00       	callq  ffffffff80004170 <serial_printf>
                        PML2 = (struct PageTable*)(PML3->entry[j] & ~(0x1FF));
ffffffff80002bcb:	49 8b 04 de          	mov    (%r14,%rbx,8),%rax
                        for(uint64_t k = 0; k < 512; k++)
ffffffff80002bcf:	31 db                	xor    %ebx,%ebx
                        PML2 = (struct PageTable*)(PML3->entry[j] & ~(0x1FF));
ffffffff80002bd1:	49 89 c4             	mov    %rax,%r12
ffffffff80002bd4:	48 89 45 b0          	mov    %rax,-0x50(%rbp)
ffffffff80002bd8:	49 81 e4 00 fe ff ff 	and    $0xfffffffffffffe00,%r12
                        for(uint64_t k = 0; k < 512; k++)
ffffffff80002bdf:	eb 14                	jmp    ffffffff80002bf5 <vmm_PMLwalk+0xf5>
ffffffff80002be1:	0f 1f 80 00 00 00 00 	nopl   0x0(%rax)
ffffffff80002be8:	48 83 c3 01          	add    $0x1,%rbx
ffffffff80002bec:	48 81 fb 00 02 00 00 	cmp    $0x200,%rbx
ffffffff80002bf3:	74 9b                	je     ffffffff80002b90 <vmm_PMLwalk+0x90>
                        {
                            if(PML2->entry[k] & 0x01)
ffffffff80002bf5:	4d 8b 04 dc          	mov    (%r12,%rbx,8),%r8
ffffffff80002bf9:	41 f6 c0 01          	test   $0x1,%r8b
ffffffff80002bfd:	74 e9                	je     ffffffff80002be8 <vmm_PMLwalk+0xe8>
                            {
                                serial_printf(SERIAL_PORT1, "2,%p,%d,%p\r\n",PML2, k, PML2->entry[k]);
ffffffff80002bff:	48 89 d9             	mov    %rbx,%rcx
ffffffff80002c02:	4c 89 e2             	mov    %r12,%rdx
ffffffff80002c05:	48 c7 c6 c1 58 00 80 	mov    $0xffffffff800058c1,%rsi
ffffffff80002c0c:	31 c0                	xor    %eax,%eax
ffffffff80002c0e:	bf f8 03 00 00       	mov    $0x3f8,%edi
                                PML1 = (struct PageTable*)(PML3->entry[k] & ~(0x1FF));
                                for(uint64_t l = 0; l < 512; l++)
ffffffff80002c13:	45 31 ff             	xor    %r15d,%r15d
                                serial_printf(SERIAL_PORT1, "2,%p,%d,%p\r\n",PML2, k, PML2->entry[k]);
ffffffff80002c16:	e8 55 15 00 00       	callq  ffffffff80004170 <serial_printf>
                                PML1 = (struct PageTable*)(PML3->entry[k] & ~(0x1FF));
ffffffff80002c1b:	4d 8b 2c de          	mov    (%r14,%rbx,8),%r13
ffffffff80002c1f:	49 81 e5 00 fe ff ff 	and    $0xfffffffffffffe00,%r13
                                for(uint64_t l = 0; l < 512; l++)
ffffffff80002c26:	eb 15                	jmp    ffffffff80002c3d <vmm_PMLwalk+0x13d>
ffffffff80002c28:	0f 1f 84 00 00 00 00 	nopl   0x0(%rax,%rax,1)
ffffffff80002c2f:	00 
ffffffff80002c30:	49 83 c7 01          	add    $0x1,%r15
ffffffff80002c34:	49 81 ff 00 02 00 00 	cmp    $0x200,%r15
ffffffff80002c3b:	74 ab                	je     ffffffff80002be8 <vmm_PMLwalk+0xe8>
                                {
                                    if(PML1->entry[l] & 0x01)
ffffffff80002c3d:	4f 8b 44 fd 00       	mov    0x0(%r13,%r15,8),%r8
ffffffff80002c42:	41 f6 c0 01          	test   $0x1,%r8b
ffffffff80002c46:	74 e8                	je     ffffffff80002c30 <vmm_PMLwalk+0x130>
                                    {
                                        serial_printf(SERIAL_PORT1, "1,%p,%d,%p\r\n", PML1, l, PML1->entry[l]);
ffffffff80002c48:	4c 89 f9             	mov    %r15,%rcx
ffffffff80002c4b:	4c 89 ea             	mov    %r13,%rdx
ffffffff80002c4e:	48 c7 c6 ce 58 00 80 	mov    $0xffffffff800058ce,%rsi
ffffffff80002c55:	31 c0                	xor    %eax,%eax
ffffffff80002c57:	bf f8 03 00 00       	mov    $0x3f8,%edi
ffffffff80002c5c:	e8 0f 15 00 00       	callq  ffffffff80004170 <serial_printf>
ffffffff80002c61:	eb cd                	jmp    ffffffff80002c30 <vmm_PMLwalk+0x130>
                }//PML3
            }
    }//PML4

    serial_printf(SERIAL_PORT1, "End Pagewalk\r\n");
}
ffffffff80002c63:	48 83 c4 28          	add    $0x28,%rsp
    serial_printf(SERIAL_PORT1, "End Pagewalk\r\n");
ffffffff80002c67:	48 c7 c6 db 58 00 80 	mov    $0xffffffff800058db,%rsi
ffffffff80002c6e:	bf f8 03 00 00       	mov    $0x3f8,%edi
ffffffff80002c73:	31 c0                	xor    %eax,%eax
}
ffffffff80002c75:	5b                   	pop    %rbx
ffffffff80002c76:	41 5c                	pop    %r12
ffffffff80002c78:	41 5d                	pop    %r13
ffffffff80002c7a:	41 5e                	pop    %r14
ffffffff80002c7c:	41 5f                	pop    %r15
ffffffff80002c7e:	5d                   	pop    %rbp
    serial_printf(SERIAL_PORT1, "End Pagewalk\r\n");
ffffffff80002c7f:	e9 ec 14 00 00       	jmpq   ffffffff80004170 <serial_printf>
ffffffff80002c84:	66 66 2e 0f 1f 84 00 	data16 nopw %cs:0x0(%rax,%rax,1)
ffffffff80002c8b:	00 00 00 00 
ffffffff80002c8f:	90                   	nop

ffffffff80002c90 <vmm_init>:

void vmm_init()
{
ffffffff80002c90:	55                   	push   %rbp
    kernel_cr3 = (struct PageTable*)vmm_read_cr3();
ffffffff80002c91:	31 c0                	xor    %eax,%eax
{
ffffffff80002c93:	48 89 e5             	mov    %rsp,%rbp
ffffffff80002c96:	41 57                	push   %r15
ffffffff80002c98:	41 56                	push   %r14
ffffffff80002c9a:	41 55                	push   %r13
ffffffff80002c9c:	41 54                	push   %r12
ffffffff80002c9e:	53                   	push   %rbx
ffffffff80002c9f:	48 83 ec 18          	sub    $0x18,%rsp
    kernel_cr3 = (struct PageTable*)vmm_read_cr3();
ffffffff80002ca3:	e8 f8 d6 ff ff       	callq  ffffffff800003a0 <vmm_read_cr3>
    printf("CR3: %p\n", (uint64_t)kernel_cr3);
ffffffff80002ca8:	48 c7 c7 ea 58 00 80 	mov    $0xffffffff800058ea,%rdi
    kernel_cr3 = (struct PageTable*)vmm_read_cr3();
ffffffff80002caf:	48 89 c6             	mov    %rax,%rsi
ffffffff80002cb2:	48 89 05 6f d6 00 00 	mov    %rax,0xd66f(%rip)        # ffffffff80010328 <kernel_cr3>
    printf("CR3: %p\n", (uint64_t)kernel_cr3);
ffffffff80002cb9:	31 c0                	xor    %eax,%eax
ffffffff80002cbb:	e8 f0 12 00 00       	callq  ffffffff80003fb0 <printf_>
    uint32_t efer = vmm_read_efer();
ffffffff80002cc0:	31 c0                	xor    %eax,%eax
ffffffff80002cc2:	e8 e5 d6 ff ff       	callq  ffffffff800003ac <vmm_read_efer>
    uint32_t NXE = efer & (1 << 11);
    printf("EFER: %p  NXE: %d\n", efer, NXE);
ffffffff80002cc7:	48 c7 c7 f3 58 00 80 	mov    $0xffffffff800058f3,%rdi
    uint32_t NXE = efer & (1 << 11);
ffffffff80002cce:	89 c2                	mov    %eax,%edx
    uint32_t efer = vmm_read_efer();
ffffffff80002cd0:	89 c6                	mov    %eax,%esi
    printf("EFER: %p  NXE: %d\n", efer, NXE);
ffffffff80002cd2:	31 c0                	xor    %eax,%eax
    uint32_t NXE = efer & (1 << 11);
ffffffff80002cd4:	81 e2 00 08 00 00    	and    $0x800,%edx
    printf("EFER: %p  NXE: %d\n", efer, NXE);
ffffffff80002cda:	e8 d1 12 00 00       	callq  ffffffff80003fb0 <printf_>
    void* page = pmm_allocpage();   //get a page
ffffffff80002cdf:	31 c0                	xor    %eax,%eax
ffffffff80002ce1:	e8 9a f6 ff ff       	callq  ffffffff80002380 <pmm_allocpage>
    if(page == NULL) return NULL;   //If it's null, we can't continue
ffffffff80002ce6:	48 85 c0             	test   %rax,%rax
ffffffff80002ce9:	74 27                	je     ffffffff80002d12 <vmm_init+0x82>
ffffffff80002ceb:	48 8d 88 00 10 00 00 	lea    0x1000(%rax),%rcx
ffffffff80002cf2:	48 89 c2             	mov    %rax,%rdx
ffffffff80002cf5:	0f 1f 00             	nopl   (%rax)
        *p++ = (unsigned char)c;
ffffffff80002cf8:	48 83 c2 01          	add    $0x1,%rdx
ffffffff80002cfc:	c6 42 ff 00          	movb   $0x0,-0x1(%rdx)
    while(len--)
ffffffff80002d00:	48 39 ca             	cmp    %rcx,%rdx
ffffffff80002d03:	75 f3                	jne    ffffffff80002cf8 <vmm_init+0x68>
    return 0xFFFF800000000000 + addr;
ffffffff80002d05:	48 ba 00 00 00 00 00 	movabs $0xffff800000000000,%rdx
ffffffff80002d0c:	80 ff ff 
ffffffff80002d0f:	48 01 d0             	add    %rdx,%rax
 
    //Create the Kernel PML4 table
    RootPageDirectory = vmm_create_page_table();
ffffffff80002d12:	48 89 05 17 d6 00 00 	mov    %rax,0xd617(%rip)        # ffffffff80010330 <RootPageDirectory>
    PTE_READWRITE           Writable if set
    PTE_USER_SUPERVISOR     User accessable if set
    PTE_EXECUTE_DISABLE     Disables execute if set (if EFER:11 is set)
*/

    for(uint64_t i = 0; i < boot_info.tag_pmrs->entries; i++)
ffffffff80002d19:	48 8b 15 48 60 00 00 	mov    0x6048(%rip),%rdx        # ffffffff80008d68 <boot_info+0x48>
    uint64_t kernel_physical = boot_info.tag_kernel_base_address->physical_base_address;
ffffffff80002d20:	48 8b 05 01 60 00 00 	mov    0x6001(%rip),%rax        # ffffffff80008d28 <boot_info+0x8>
    for(uint64_t i = 0; i < boot_info.tag_pmrs->entries; i++)
ffffffff80002d27:	48 c7 45 c8 00 00 00 	movq   $0x0,-0x38(%rbp)
ffffffff80002d2e:	00 
    uint64_t kernel_physical = boot_info.tag_kernel_base_address->physical_base_address;
ffffffff80002d2f:	48 8b 48 10          	mov    0x10(%rax),%rcx
    for(uint64_t i = 0; i < boot_info.tag_pmrs->entries; i++)
ffffffff80002d33:	48 2b 48 18          	sub    0x18(%rax),%rcx
ffffffff80002d37:	48 83 7a 10 00       	cmpq   $0x0,0x10(%rdx)
ffffffff80002d3c:	48 89 4d c0          	mov    %rcx,-0x40(%rbp)
ffffffff80002d40:	74 7a                	je     ffffffff80002dbc <vmm_init+0x12c>
ffffffff80002d42:	66 0f 1f 44 00 00    	nopw   0x0(%rax,%rax,1)
    {
        uint64_t virt = boot_info.tag_pmrs->pmrs[i].base;
ffffffff80002d48:	48 8b 45 c8          	mov    -0x38(%rbp),%rax
        uint64_t phys = virt - kernel_offset;
ffffffff80002d4c:	48 8b 7d c0          	mov    -0x40(%rbp),%rdi
        uint64_t virt = boot_info.tag_pmrs->pmrs[i].base;
ffffffff80002d50:	4c 8d 24 40          	lea    (%rax,%rax,2),%r12
ffffffff80002d54:	49 c1 e4 03          	shl    $0x3,%r12
ffffffff80002d58:	4a 8d 04 22          	lea    (%rdx,%r12,1),%rax
        uint64_t flags = 0;
        uint64_t perms = boot_info.tag_pmrs->pmrs[i].permissions;
        
        if(perms & 0x02) //is read/write bit set?
ffffffff80002d5c:	48 8b 58 28          	mov    0x28(%rax),%rbx
        uint64_t virt = boot_info.tag_pmrs->pmrs[i].base;
ffffffff80002d60:	4c 8b 68 18          	mov    0x18(%rax),%r13
        if(perms & 0x02) //is read/write bit set?
ffffffff80002d64:	83 e3 02             	and    $0x2,%ebx
        uint64_t phys = virt - kernel_offset;
ffffffff80002d67:	4d 8d 74 3d 00       	lea    0x0(%r13,%rdi,1),%r14
        {
            flags |= PTE_READWRITE;
        }

        flags |= PTE_PRESENT;
ffffffff80002d6c:	48 83 cb 01          	or     $0x1,%rbx
        
        //DEBUG_MSG("Base: %p  Length: %x  Flags: %x\n", boot_info.tag_pmrs->pmrs[i].base, boot_info.tag_pmrs->pmrs[i].length, boot_info.tag_pmrs->pmrs[i].permissions);
        for(uint64_t j = 0; j < boot_info.tag_pmrs->pmrs[i].length; j+=0x1000)
ffffffff80002d70:	48 83 78 20 00       	cmpq   $0x0,0x20(%rax)
ffffffff80002d75:	74 36                	je     ffffffff80002dad <vmm_init+0x11d>
ffffffff80002d77:	45 31 ff             	xor    %r15d,%r15d
ffffffff80002d7a:	66 0f 1f 44 00 00    	nopw   0x0(%rax,%rax,1)
        {
            vmm_map_4Kpage(RootPageDirectory, virt + j, phys + j, flags);
ffffffff80002d80:	48 8b 3d a9 d5 00 00 	mov    0xd5a9(%rip),%rdi        # ffffffff80010330 <RootPageDirectory>
ffffffff80002d87:	4b 8d 14 3e          	lea    (%r14,%r15,1),%rdx
ffffffff80002d8b:	4b 8d 74 3d 00       	lea    0x0(%r13,%r15,1),%rsi
ffffffff80002d90:	48 89 d9             	mov    %rbx,%rcx
        for(uint64_t j = 0; j < boot_info.tag_pmrs->pmrs[i].length; j+=0x1000)
ffffffff80002d93:	49 81 c7 00 10 00 00 	add    $0x1000,%r15
            vmm_map_4Kpage(RootPageDirectory, virt + j, phys + j, flags);
ffffffff80002d9a:	e8 f1 f9 ff ff       	callq  ffffffff80002790 <vmm_map_4Kpage>
        for(uint64_t j = 0; j < boot_info.tag_pmrs->pmrs[i].length; j+=0x1000)
ffffffff80002d9f:	48 8b 15 c2 5f 00 00 	mov    0x5fc2(%rip),%rdx        # ffffffff80008d68 <boot_info+0x48>
ffffffff80002da6:	4e 3b 7c 22 20       	cmp    0x20(%rdx,%r12,1),%r15
ffffffff80002dab:	72 d3                	jb     ffffffff80002d80 <vmm_init+0xf0>
    for(uint64_t i = 0; i < boot_info.tag_pmrs->entries; i++)
ffffffff80002dad:	48 83 45 c8 01       	addq   $0x1,-0x38(%rbp)
ffffffff80002db2:	48 8b 45 c8          	mov    -0x38(%rbp),%rax
ffffffff80002db6:	48 3b 42 10          	cmp    0x10(%rdx),%rax
ffffffff80002dba:	72 8c                	jb     ffffffff80002d48 <vmm_init+0xb8>
    //{
    //    vmm_map_4Kpage(RootPageDirectory, kernel_virt + (0x1000 * i), kernel_phys + (0x1000 * i), PTE_PRESENT | PTE_READWRITE);
    //}

    //Map Physical Memory to 0xFFFF8...
    printf("HHDM: %p\n", boot_info.tag_hhdm->addr);
ffffffff80002dbc:	48 8b 05 9d 5f 00 00 	mov    0x5f9d(%rip),%rax        # ffffffff80008d60 <boot_info+0x40>
ffffffff80002dc3:	48 c7 c7 06 59 00 80 	mov    $0xffffffff80005906,%rdi
    for(uint64_t i = 0; i < pmm_info.totalmem ; i+=0x1000)
ffffffff80002dca:	31 db                	xor    %ebx,%ebx
    printf("HHDM: %p\n", boot_info.tag_hhdm->addr);
ffffffff80002dcc:	48 8b 70 10          	mov    0x10(%rax),%rsi
ffffffff80002dd0:	31 c0                	xor    %eax,%eax
ffffffff80002dd2:	e8 d9 11 00 00       	callq  ffffffff80003fb0 <printf_>
    for(uint64_t i = 0; i < pmm_info.totalmem ; i+=0x1000)
ffffffff80002dd7:	4c 8b 25 22 d5 00 00 	mov    0xd522(%rip),%r12        # ffffffff80010300 <pmm_info>
ffffffff80002dde:	4d 85 e4             	test   %r12,%r12
ffffffff80002de1:	74 33                	je     ffffffff80002e16 <vmm_init+0x186>
ffffffff80002de3:	0f 1f 44 00 00       	nopl   0x0(%rax,%rax,1)
    {   
        vmm_map_4Kpage(RootPageDirectory, (boot_info.tag_hhdm->addr + i), i, PTE_PRESENT | PTE_READWRITE);
ffffffff80002de8:	48 8b 05 71 5f 00 00 	mov    0x5f71(%rip),%rax        # ffffffff80008d60 <boot_info+0x40>
ffffffff80002def:	48 8b 3d 3a d5 00 00 	mov    0xd53a(%rip),%rdi        # ffffffff80010330 <RootPageDirectory>
ffffffff80002df6:	48 89 da             	mov    %rbx,%rdx
ffffffff80002df9:	b9 03 00 00 00       	mov    $0x3,%ecx
ffffffff80002dfe:	48 8b 70 10          	mov    0x10(%rax),%rsi
ffffffff80002e02:	48 01 de             	add    %rbx,%rsi
    for(uint64_t i = 0; i < pmm_info.totalmem ; i+=0x1000)
ffffffff80002e05:	48 81 c3 00 10 00 00 	add    $0x1000,%rbx
        vmm_map_4Kpage(RootPageDirectory, (boot_info.tag_hhdm->addr + i), i, PTE_PRESENT | PTE_READWRITE);
ffffffff80002e0c:	e8 7f f9 ff ff       	callq  ffffffff80002790 <vmm_map_4Kpage>
    for(uint64_t i = 0; i < pmm_info.totalmem ; i+=0x1000)
ffffffff80002e11:	4c 39 e3             	cmp    %r12,%rbx
ffffffff80002e14:	72 d2                	jb     ffffffff80002de8 <vmm_init+0x158>
    }

    DEBUG_MSG("New CR3: %p -- & %p \n", (uint64_t)RootPageDirectory, &RootPageDirectory);
ffffffff80002e16:	48 8b 15 13 d5 00 00 	mov    0xd513(%rip),%rdx        # ffffffff80010330 <RootPageDirectory>
ffffffff80002e1d:	48 c7 c6 10 59 00 80 	mov    $0xffffffff80005910,%rsi
ffffffff80002e24:	bf f8 03 00 00       	mov    $0x3f8,%edi
ffffffff80002e29:	31 c0                	xor    %eax,%eax
ffffffff80002e2b:	48 c7 c1 30 03 01 80 	mov    $0xffffffff80010330,%rcx
ffffffff80002e32:	e8 39 13 00 00       	callq  ffffffff80004170 <serial_printf>
    printf("New CR3: %p -- & %p \n", (uint64_t)RootPageDirectory, &RootPageDirectory);
ffffffff80002e37:	48 8b 35 f2 d4 00 00 	mov    0xd4f2(%rip),%rsi        # ffffffff80010330 <RootPageDirectory>

    //cycle through page entries


    
}
ffffffff80002e3e:	48 83 c4 18          	add    $0x18,%rsp
    printf("New CR3: %p -- & %p \n", (uint64_t)RootPageDirectory, &RootPageDirectory);
ffffffff80002e42:	31 c0                	xor    %eax,%eax
}
ffffffff80002e44:	5b                   	pop    %rbx
    printf("New CR3: %p -- & %p \n", (uint64_t)RootPageDirectory, &RootPageDirectory);
ffffffff80002e45:	48 c7 c2 30 03 01 80 	mov    $0xffffffff80010330,%rdx
}
ffffffff80002e4c:	41 5c                	pop    %r12
    printf("New CR3: %p -- & %p \n", (uint64_t)RootPageDirectory, &RootPageDirectory);
ffffffff80002e4e:	48 c7 c7 10 59 00 80 	mov    $0xffffffff80005910,%rdi
}
ffffffff80002e55:	41 5d                	pop    %r13
ffffffff80002e57:	41 5e                	pop    %r14
ffffffff80002e59:	41 5f                	pop    %r15
ffffffff80002e5b:	5d                   	pop    %rbp
    printf("New CR3: %p -- & %p \n", (uint64_t)RootPageDirectory, &RootPageDirectory);
ffffffff80002e5c:	e9 4f 11 00 00       	jmpq   ffffffff80003fb0 <printf_>
ffffffff80002e61:	66 2e 0f 1f 84 00 00 	nopw   %cs:0x0(%rax,%rax,1)
ffffffff80002e68:	00 00 00 
ffffffff80002e6b:	0f 1f 44 00 00       	nopl   0x0(%rax,%rax,1)

ffffffff80002e70 <schedule>:
#include "../memory/memory.h"


struct thread_control_block* threads[512];

void schedule()
ffffffff80002e70:	c3                   	retq   
ffffffff80002e71:	66 66 2e 0f 1f 84 00 	data16 nopw %cs:0x0(%rax,%rax,1)
ffffffff80002e78:	00 00 00 00 
ffffffff80002e7c:	0f 1f 40 00          	nopl   0x0(%rax)

ffffffff80002e80 <scheduler_init>:
}

void scheduler_init()
{

ffffffff80002e80:	c3                   	retq   
ffffffff80002e81:	66 2e 0f 1f 84 00 00 	nopw   %cs:0x0(%rax,%rax,1)
ffffffff80002e88:	00 00 00 
ffffffff80002e8b:	0f 1f 44 00 00       	nopl   0x0(%rax,%rax,1)

ffffffff80002e90 <user_init>:
extern void __syscall_handler();
extern void enable_syscall(uint64_t STAR, void* handler);

void user_init()
{
    enable_syscall(0x00180008, &__syscall_handler);
ffffffff80002e90:	48 c7 c6 4c 04 00 80 	mov    $0xffffffff8000044c,%rsi
ffffffff80002e97:	bf 08 00 18 00       	mov    $0x180008,%edi
ffffffff80002e9c:	e9 64 d5 ff ff       	jmpq   ffffffff80000405 <enable_syscall>
ffffffff80002ea1:	66 66 2e 0f 1f 84 00 	data16 nopw %cs:0x0(%rax,%rax,1)
ffffffff80002ea8:	00 00 00 00 
ffffffff80002eac:	0f 1f 40 00          	nopl   0x0(%rax)

ffffffff80002eb0 <syscall_handler>:
    //set_lstar(__syscall_handler);
}

uint64_t syscall_handler(uint64_t num, uint64_t param1, uint64_t param2, uint64_t param3, uint64_t param4, uint64_t param5)
{
    switch(num)
ffffffff80002eb0:	48 83 ff 01          	cmp    $0x1,%rdi
ffffffff80002eb4:	74 2a                	je     ffffffff80002ee0 <syscall_handler+0x30>
ffffffff80002eb6:	76 0c                	jbe    ffffffff80002ec4 <syscall_handler+0x14>
ffffffff80002eb8:	48 83 ff 03          	cmp    $0x3,%rdi
ffffffff80002ebc:	76 06                	jbe    ffffffff80002ec4 <syscall_handler+0x14>
ffffffff80002ebe:	48 83 ff 10          	cmp    $0x10,%rdi
ffffffff80002ec2:	75 0c                	jne    ffffffff80002ed0 <syscall_handler+0x20>
{
ffffffff80002ec4:	31 c0                	xor    %eax,%eax
        default:
            return -1;
    }

    return 0;
}
ffffffff80002ec6:	c3                   	retq   
ffffffff80002ec7:	66 0f 1f 84 00 00 00 	nopw   0x0(%rax,%rax,1)
ffffffff80002ece:	00 00 
            return -1;
ffffffff80002ed0:	48 c7 c0 ff ff ff ff 	mov    $0xffffffffffffffff,%rax
ffffffff80002ed7:	c3                   	retq   
ffffffff80002ed8:	0f 1f 84 00 00 00 00 	nopl   0x0(%rax,%rax,1)
ffffffff80002edf:	00 
{
ffffffff80002ee0:	55                   	push   %rbp
            printf((char*)param1);
ffffffff80002ee1:	48 89 f7             	mov    %rsi,%rdi
ffffffff80002ee4:	31 c0                	xor    %eax,%eax
{
ffffffff80002ee6:	48 89 e5             	mov    %rsp,%rbp
            printf((char*)param1);
ffffffff80002ee9:	e8 c2 10 00 00       	callq  ffffffff80003fb0 <printf_>
{
ffffffff80002eee:	31 c0                	xor    %eax,%eax
}
ffffffff80002ef0:	5d                   	pop    %rbp
ffffffff80002ef1:	c3                   	retq   
ffffffff80002ef2:	66 2e 0f 1f 84 00 00 	nopw   %cs:0x0(%rax,%rax,1)
ffffffff80002ef9:	00 00 00 
ffffffff80002efc:	0f 1f 40 00          	nopl   0x0(%rax)

ffffffff80002f00 <_out_buffer>:


// internal buffer output
static inline void _out_buffer(char character, void* buffer, size_t idx, size_t maxlen)
{
  if (idx < maxlen) {
ffffffff80002f00:	48 39 ca             	cmp    %rcx,%rdx
ffffffff80002f03:	73 04                	jae    ffffffff80002f09 <_out_buffer+0x9>
    ((char*)buffer)[idx] = character;
ffffffff80002f05:	40 88 3c 16          	mov    %dil,(%rsi,%rdx,1)
  }
}
ffffffff80002f09:	c3                   	retq   
ffffffff80002f0a:	66 0f 1f 44 00 00    	nopw   0x0(%rax,%rax,1)

ffffffff80002f10 <_out_null>:

// internal null output
static inline void _out_null(char character, void* buffer, size_t idx, size_t maxlen)
{
  (void)character; (void)buffer; (void)idx; (void)maxlen;
}
ffffffff80002f10:	c3                   	retq   
ffffffff80002f11:	66 66 2e 0f 1f 84 00 	data16 nopw %cs:0x0(%rax,%rax,1)
ffffffff80002f18:	00 00 00 00 
ffffffff80002f1c:	0f 1f 40 00          	nopl   0x0(%rax)

ffffffff80002f20 <_ntoa_long>:
}


// internal itoa for 'long' type
static size_t _ntoa_long(out_fct_type out, char* buffer, size_t idx, size_t maxlen, unsigned long value, bool negative, unsigned long base, unsigned int prec, unsigned int width, unsigned int flags)
{
ffffffff80002f20:	55                   	push   %rbp
ffffffff80002f21:	48 89 e5             	mov    %rsp,%rbp
ffffffff80002f24:	41 57                	push   %r15
ffffffff80002f26:	41 56                	push   %r14
ffffffff80002f28:	49 89 ce             	mov    %rcx,%r14
ffffffff80002f2b:	41 55                	push   %r13
ffffffff80002f2d:	49 89 f5             	mov    %rsi,%r13
ffffffff80002f30:	44 89 ce             	mov    %r9d,%esi
ffffffff80002f33:	41 54                	push   %r12
ffffffff80002f35:	49 89 fc             	mov    %rdi,%r12
ffffffff80002f38:	53                   	push   %rbx
ffffffff80002f39:	48 83 ec 48          	sub    $0x48,%rsp
ffffffff80002f3d:	44 8b 55 28          	mov    0x28(%rbp),%r10d
ffffffff80002f41:	48 8b 7d 10          	mov    0x10(%rbp),%rdi
ffffffff80002f45:	48 89 55 a0          	mov    %rdx,-0x60(%rbp)
  if (!value) {
    flags &= ~FLAGS_HASH;
  }

  // write if precision != 0 and value is != 0
  if (!(flags & FLAGS_PRECISION) || value) {
ffffffff80002f49:	45 89 d7             	mov    %r10d,%r15d
ffffffff80002f4c:	41 81 e7 00 04 00 00 	and    $0x400,%r15d
  if (!value) {
ffffffff80002f53:	4d 85 c0             	test   %r8,%r8
ffffffff80002f56:	0f 84 84 03 00 00    	je     ffffffff800032e0 <_ntoa_long+0x3c0>
  if (flags & FLAGS_HASH) {
ffffffff80002f5c:	44 89 d1             	mov    %r10d,%ecx
ffffffff80002f5f:	83 e1 10             	and    $0x10,%ecx
    do {
      const char digit = (char)(value % base);
      buf[len++] = digit < 10 ? '0' + digit : (flags & FLAGS_UPPERCASE ? 'A' : 'a') + digit - 10;
ffffffff80002f62:	44 89 d2             	mov    %r10d,%edx
ffffffff80002f65:	89 4d a8             	mov    %ecx,-0x58(%rbp)
ffffffff80002f68:	4c 8d 4d af          	lea    -0x51(%rbp),%r9
ffffffff80002f6c:	83 e2 20             	and    $0x20,%edx
ffffffff80002f6f:	44 89 7d 9c          	mov    %r15d,-0x64(%rbp)
ffffffff80002f73:	83 fa 01             	cmp    $0x1,%edx
ffffffff80002f76:	45 19 db             	sbb    %r11d,%r11d
ffffffff80002f79:	31 db                	xor    %ebx,%ebx
ffffffff80002f7b:	41 83 e3 20          	and    $0x20,%r11d
ffffffff80002f7f:	41 83 c3 37          	add    $0x37,%r11d
ffffffff80002f83:	eb 06                	jmp    ffffffff80002f8b <_ntoa_long+0x6b>
ffffffff80002f85:	0f 1f 00             	nopl   (%rax)
      value /= base;
ffffffff80002f88:	49 89 c0             	mov    %rax,%r8
      const char digit = (char)(value % base);
ffffffff80002f8b:	31 d2                	xor    %edx,%edx
ffffffff80002f8d:	4c 89 c0             	mov    %r8,%rax
ffffffff80002f90:	48 f7 f7             	div    %rdi
      buf[len++] = digit < 10 ? '0' + digit : (flags & FLAGS_UPPERCASE ? 'A' : 'a') + digit - 10;
ffffffff80002f93:	48 83 fa 09          	cmp    $0x9,%rdx
ffffffff80002f97:	44 8d 7a 30          	lea    0x30(%rdx),%r15d
ffffffff80002f9b:	41 8d 0c 13          	lea    (%r11,%rdx,1),%ecx
ffffffff80002f9f:	41 0f 46 cf          	cmovbe %r15d,%ecx
ffffffff80002fa3:	48 83 c3 01          	add    $0x1,%rbx
ffffffff80002fa7:	41 88 0c 19          	mov    %cl,(%r9,%rbx,1)
    } while (value && (len < PRINTF_NTOA_BUFFER_SIZE));
ffffffff80002fab:	48 83 fb 1f          	cmp    $0x1f,%rbx
ffffffff80002faf:	77 05                	ja     ffffffff80002fb6 <_ntoa_long+0x96>
ffffffff80002fb1:	49 39 f8             	cmp    %rdi,%r8
ffffffff80002fb4:	73 d2                	jae    ffffffff80002f88 <_ntoa_long+0x68>
  if (!(flags & FLAGS_LEFT)) {
ffffffff80002fb6:	45 89 d0             	mov    %r10d,%r8d
ffffffff80002fb9:	8b 4d a8             	mov    -0x58(%rbp),%ecx
ffffffff80002fbc:	44 8b 7d 9c          	mov    -0x64(%rbp),%r15d
ffffffff80002fc0:	41 83 e0 02          	and    $0x2,%r8d
ffffffff80002fc4:	0f 85 a5 00 00 00    	jne    ffffffff8000306f <_ntoa_long+0x14f>
    while ((len < prec) && (len < PRINTF_NTOA_BUFFER_SIZE)) {
ffffffff80002fca:	8b 55 18             	mov    0x18(%rbp),%edx
    if (width && (flags & FLAGS_ZEROPAD) && (negative || (flags & (FLAGS_PLUS | FLAGS_SPACE)))) {
ffffffff80002fcd:	45 89 d0             	mov    %r10d,%r8d
ffffffff80002fd0:	8b 45 20             	mov    0x20(%rbp),%eax
ffffffff80002fd3:	41 83 e0 01          	and    $0x1,%r8d
    while ((len < prec) && (len < PRINTF_NTOA_BUFFER_SIZE)) {
ffffffff80002fd7:	48 83 fb 1f          	cmp    $0x1f,%rbx
ffffffff80002fdb:	41 0f 96 c3          	setbe  %r11b
ffffffff80002fdf:	48 39 d3             	cmp    %rdx,%rbx
ffffffff80002fe2:	41 0f 92 c1          	setb   %r9b
ffffffff80002fe6:	45 21 d9             	and    %r11d,%r9d
    if (width && (flags & FLAGS_ZEROPAD) && (negative || (flags & (FLAGS_PLUS | FLAGS_SPACE)))) {
ffffffff80002fe9:	85 c0                	test   %eax,%eax
ffffffff80002feb:	74 23                	je     ffffffff80003010 <_ntoa_long+0xf0>
ffffffff80002fed:	45 85 c0             	test   %r8d,%r8d
ffffffff80002ff0:	0f 84 5a 03 00 00    	je     ffffffff80003350 <_ntoa_long+0x430>
ffffffff80002ff6:	40 84 f6             	test   %sil,%sil
ffffffff80002ff9:	75 06                	jne    ffffffff80003001 <_ntoa_long+0xe1>
ffffffff80002ffb:	41 f6 c2 0c          	test   $0xc,%r10b
ffffffff80002fff:	74 04                	je     ffffffff80003005 <_ntoa_long+0xe5>
      width--;
ffffffff80003001:	83 6d 20 01          	subl   $0x1,0x20(%rbp)
    while ((len < prec) && (len < PRINTF_NTOA_BUFFER_SIZE)) {
ffffffff80003005:	45 84 c9             	test   %r9b,%r9b
ffffffff80003008:	75 0b                	jne    ffffffff80003015 <_ntoa_long+0xf5>
ffffffff8000300a:	eb 35                	jmp    ffffffff80003041 <_ntoa_long+0x121>
ffffffff8000300c:	0f 1f 40 00          	nopl   0x0(%rax)
ffffffff80003010:	45 84 c9             	test   %r9b,%r9b
ffffffff80003013:	74 1f                	je     ffffffff80003034 <_ntoa_long+0x114>
ffffffff80003015:	4c 8d 4d af          	lea    -0x51(%rbp),%r9
ffffffff80003019:	eb 0b                	jmp    ffffffff80003026 <_ntoa_long+0x106>
ffffffff8000301b:	0f 1f 44 00 00       	nopl   0x0(%rax,%rax,1)
ffffffff80003020:	48 83 fb 1f          	cmp    $0x1f,%rbx
ffffffff80003024:	77 0e                	ja     ffffffff80003034 <_ntoa_long+0x114>
      buf[len++] = '0';
ffffffff80003026:	48 83 c3 01          	add    $0x1,%rbx
ffffffff8000302a:	41 c6 04 19 30       	movb   $0x30,(%r9,%rbx,1)
    while ((len < prec) && (len < PRINTF_NTOA_BUFFER_SIZE)) {
ffffffff8000302f:	48 39 d3             	cmp    %rdx,%rbx
ffffffff80003032:	72 ec                	jb     ffffffff80003020 <_ntoa_long+0x100>
    while ((flags & FLAGS_ZEROPAD) && (len < width) && (len < PRINTF_NTOA_BUFFER_SIZE)) {
ffffffff80003034:	45 85 c0             	test   %r8d,%r8d
ffffffff80003037:	74 36                	je     ffffffff8000306f <_ntoa_long+0x14f>
ffffffff80003039:	48 83 fb 1f          	cmp    $0x1f,%rbx
ffffffff8000303d:	41 0f 96 c3          	setbe  %r11b
ffffffff80003041:	8b 55 20             	mov    0x20(%rbp),%edx
ffffffff80003044:	48 39 d3             	cmp    %rdx,%rbx
ffffffff80003047:	73 23                	jae    ffffffff8000306c <_ntoa_long+0x14c>
ffffffff80003049:	45 84 db             	test   %r11b,%r11b
ffffffff8000304c:	74 1e                	je     ffffffff8000306c <_ntoa_long+0x14c>
ffffffff8000304e:	4c 8d 4d af          	lea    -0x51(%rbp),%r9
ffffffff80003052:	eb 09                	jmp    ffffffff8000305d <_ntoa_long+0x13d>
ffffffff80003054:	0f 1f 40 00          	nopl   0x0(%rax)
ffffffff80003058:	48 39 d3             	cmp    %rdx,%rbx
ffffffff8000305b:	73 0f                	jae    ffffffff8000306c <_ntoa_long+0x14c>
      buf[len++] = '0';
ffffffff8000305d:	48 83 c3 01          	add    $0x1,%rbx
ffffffff80003061:	41 c6 04 19 30       	movb   $0x30,(%r9,%rbx,1)
    while ((flags & FLAGS_ZEROPAD) && (len < width) && (len < PRINTF_NTOA_BUFFER_SIZE)) {
ffffffff80003066:	48 83 fb 1f          	cmp    $0x1f,%rbx
ffffffff8000306a:	76 ec                	jbe    ffffffff80003058 <_ntoa_long+0x138>
ffffffff8000306c:	45 31 c0             	xor    %r8d,%r8d
  if (flags & FLAGS_HASH) {
ffffffff8000306f:	85 c9                	test   %ecx,%ecx
ffffffff80003071:	0f 84 e5 00 00 00    	je     ffffffff8000315c <_ntoa_long+0x23c>
    if (!(flags & FLAGS_PRECISION) && len && ((len == prec) || (len == width))) {
ffffffff80003077:	45 85 ff             	test   %r15d,%r15d
ffffffff8000307a:	0f 84 a0 01 00 00    	je     ffffffff80003220 <_ntoa_long+0x300>
    if ((base == 16U) && !(flags & FLAGS_UPPERCASE) && (len < PRINTF_NTOA_BUFFER_SIZE)) {
ffffffff80003080:	48 83 ff 10          	cmp    $0x10,%rdi
ffffffff80003084:	0f 84 e6 02 00 00    	je     ffffffff80003370 <_ntoa_long+0x450>
    else if ((base == 2U) && (len < PRINTF_NTOA_BUFFER_SIZE)) {
ffffffff8000308a:	83 ff 02             	cmp    $0x2,%edi
ffffffff8000308d:	75 12                	jne    ffffffff800030a1 <_ntoa_long+0x181>
ffffffff8000308f:	48 83 fb 1f          	cmp    $0x1f,%rbx
ffffffff80003093:	77 0c                	ja     ffffffff800030a1 <_ntoa_long+0x181>
    for (size_t i = len; i < width; i++) {
ffffffff80003095:	48 89 da             	mov    %rbx,%rdx
ffffffff80003098:	48 83 c3 01          	add    $0x1,%rbx
      buf[len++] = 'b';
ffffffff8000309c:	c6 44 15 b0 62       	movb   $0x62,-0x50(%rbp,%rdx,1)
    if (len < PRINTF_NTOA_BUFFER_SIZE) {
ffffffff800030a1:	48 83 fb 20          	cmp    $0x20,%rbx
ffffffff800030a5:	0f 85 a5 00 00 00    	jne    ffffffff80003150 <_ntoa_long+0x230>
  if (!(flags & FLAGS_LEFT) && !(flags & FLAGS_ZEROPAD)) {
ffffffff800030ab:	41 83 e2 03          	and    $0x3,%r10d
ffffffff800030af:	0f 85 1b 03 00 00    	jne    ffffffff800033d0 <_ntoa_long+0x4b0>
    for (size_t i = len; i < width; i++) {
ffffffff800030b5:	83 7d 20 20          	cmpl   $0x20,0x20(%rbp)
ffffffff800030b9:	8b 4d 20             	mov    0x20(%rbp),%ecx
ffffffff800030bc:	0f 86 0e 03 00 00    	jbe    ffffffff800033d0 <_ntoa_long+0x4b0>
      buf[len++] = '-';
ffffffff800030c2:	48 8b 75 a0          	mov    -0x60(%rbp),%rsi
ffffffff800030c6:	48 89 d8             	mov    %rbx,%rax
ffffffff800030c9:	44 89 45 9c          	mov    %r8d,-0x64(%rbp)
ffffffff800030cd:	48 89 5d 90          	mov    %rbx,-0x70(%rbp)
ffffffff800030d1:	48 89 cb             	mov    %rcx,%rbx
ffffffff800030d4:	48 29 f0             	sub    %rsi,%rax
ffffffff800030d7:	4c 89 6d a8          	mov    %r13,-0x58(%rbp)
ffffffff800030db:	49 89 f5             	mov    %rsi,%r13
ffffffff800030de:	49 89 c7             	mov    %rax,%r15
ffffffff800030e1:	0f 1f 80 00 00 00 00 	nopl   0x0(%rax)
      out(' ', buffer, idx++, maxlen);
ffffffff800030e8:	4c 89 ea             	mov    %r13,%rdx
ffffffff800030eb:	49 83 c5 01          	add    $0x1,%r13
ffffffff800030ef:	48 8b 75 a8          	mov    -0x58(%rbp),%rsi
ffffffff800030f3:	4c 89 f1             	mov    %r14,%rcx
ffffffff800030f6:	bf 20 00 00 00       	mov    $0x20,%edi
ffffffff800030fb:	41 ff d4             	callq  *%r12
    for (size_t i = len; i < width; i++) {
ffffffff800030fe:	4b 8d 54 3d 00       	lea    0x0(%r13,%r15,1),%rdx
ffffffff80003103:	48 39 da             	cmp    %rbx,%rdx
ffffffff80003106:	72 e0                	jb     ffffffff800030e8 <_ntoa_long+0x1c8>
      out(' ', buffer, idx++, maxlen);
ffffffff80003108:	48 89 d9             	mov    %rbx,%rcx
ffffffff8000310b:	48 8b 5d 90          	mov    -0x70(%rbp),%rbx
ffffffff8000310f:	48 8b 75 a0          	mov    -0x60(%rbp),%rsi
ffffffff80003113:	48 8d 41 ff          	lea    -0x1(%rcx),%rax
ffffffff80003117:	44 8b 45 9c          	mov    -0x64(%rbp),%r8d
ffffffff8000311b:	4c 8b 6d a8          	mov    -0x58(%rbp),%r13
ffffffff8000311f:	48 8d 53 01          	lea    0x1(%rbx),%rdx
ffffffff80003123:	48 29 d8             	sub    %rbx,%rax
ffffffff80003126:	48 39 d1             	cmp    %rdx,%rcx
ffffffff80003129:	ba 00 00 00 00       	mov    $0x0,%edx
ffffffff8000312e:	48 0f 42 c2          	cmovb  %rdx,%rax
ffffffff80003132:	4c 8d 7c 06 01       	lea    0x1(%rsi,%rax,1),%r15
  while (len) {
ffffffff80003137:	48 85 db             	test   %rbx,%rbx
ffffffff8000313a:	75 38                	jne    ffffffff80003174 <_ntoa_long+0x254>
ffffffff8000313c:	eb 7c                	jmp    ffffffff800031ba <_ntoa_long+0x29a>
      buf[len++] = 'x';
ffffffff8000313e:	c6 44 1d b0 78       	movb   $0x78,-0x50(%rbp,%rbx,1)
ffffffff80003143:	48 89 d3             	mov    %rdx,%rbx
ffffffff80003146:	66 2e 0f 1f 84 00 00 	nopw   %cs:0x0(%rax,%rax,1)
ffffffff8000314d:	00 00 00 
    for (size_t i = len; i < width; i++) {
ffffffff80003150:	48 89 da             	mov    %rbx,%rdx
ffffffff80003153:	48 83 c3 01          	add    $0x1,%rbx
      buf[len++] = '0';
ffffffff80003157:	c6 44 15 b0 30       	movb   $0x30,-0x50(%rbp,%rdx,1)
  if (len < PRINTF_NTOA_BUFFER_SIZE) {
ffffffff8000315c:	48 83 fb 20          	cmp    $0x20,%rbx
ffffffff80003160:	0f 85 4c 01 00 00    	jne    ffffffff800032b2 <_ntoa_long+0x392>
  if (!(flags & FLAGS_LEFT) && !(flags & FLAGS_ZEROPAD)) {
ffffffff80003166:	41 83 e2 03          	and    $0x3,%r10d
ffffffff8000316a:	0f 84 18 01 00 00    	je     ffffffff80003288 <_ntoa_long+0x368>
ffffffff80003170:	4c 8b 7d a0          	mov    -0x60(%rbp),%r15
ffffffff80003174:	44 89 45 9c          	mov    %r8d,-0x64(%rbp)
ffffffff80003178:	49 8d 04 1f          	lea    (%r15,%rbx,1),%rax
ffffffff8000317c:	4c 89 6d a8          	mov    %r13,-0x58(%rbp)
ffffffff80003180:	49 89 dd             	mov    %rbx,%r13
ffffffff80003183:	48 89 c3             	mov    %rax,%rbx
ffffffff80003186:	66 2e 0f 1f 84 00 00 	nopw   %cs:0x0(%rax,%rax,1)
ffffffff8000318d:	00 00 00 
ffffffff80003190:	48 89 da             	mov    %rbx,%rdx
    out(buf[--len], buffer, idx++, maxlen);
ffffffff80003193:	48 8b 75 a8          	mov    -0x58(%rbp),%rsi
ffffffff80003197:	49 89 df             	mov    %rbx,%r15
ffffffff8000319a:	4c 89 f1             	mov    %r14,%rcx
ffffffff8000319d:	4c 29 ea             	sub    %r13,%rdx
ffffffff800031a0:	49 83 ed 01          	sub    $0x1,%r13
ffffffff800031a4:	42 0f be 7c 2d b0    	movsbl -0x50(%rbp,%r13,1),%edi
ffffffff800031aa:	41 ff d4             	callq  *%r12
  while (len) {
ffffffff800031ad:	4d 85 ed             	test   %r13,%r13
ffffffff800031b0:	75 de                	jne    ffffffff80003190 <_ntoa_long+0x270>
ffffffff800031b2:	44 8b 45 9c          	mov    -0x64(%rbp),%r8d
ffffffff800031b6:	4c 8b 6d a8          	mov    -0x58(%rbp),%r13
  if (flags & FLAGS_LEFT) {
ffffffff800031ba:	45 85 c0             	test   %r8d,%r8d
ffffffff800031bd:	74 4b                	je     ffffffff8000320a <_ntoa_long+0x2ea>
    while (idx - start_idx < width) {
ffffffff800031bf:	48 8b 45 a0          	mov    -0x60(%rbp),%rax
ffffffff800031c3:	4c 89 fb             	mov    %r15,%rbx
ffffffff800031c6:	48 29 c3             	sub    %rax,%rbx
ffffffff800031c9:	8b 45 20             	mov    0x20(%rbp),%eax
ffffffff800031cc:	48 39 c3             	cmp    %rax,%rbx
ffffffff800031cf:	73 39                	jae    ffffffff8000320a <_ntoa_long+0x2ea>
ffffffff800031d1:	4c 89 6d a8          	mov    %r13,-0x58(%rbp)
ffffffff800031d5:	4d 89 e5             	mov    %r12,%r13
ffffffff800031d8:	49 89 c4             	mov    %rax,%r12
ffffffff800031db:	4c 89 f0             	mov    %r14,%rax
ffffffff800031de:	4d 89 fe             	mov    %r15,%r14
ffffffff800031e1:	49 89 c7             	mov    %rax,%r15
ffffffff800031e4:	0f 1f 40 00          	nopl   0x0(%rax)
ffffffff800031e8:	48 83 c3 01          	add    $0x1,%rbx
ffffffff800031ec:	4c 89 f2             	mov    %r14,%rdx
      out(' ', buffer, idx++, maxlen);
ffffffff800031ef:	48 8b 75 a8          	mov    -0x58(%rbp),%rsi
ffffffff800031f3:	4c 89 f9             	mov    %r15,%rcx
ffffffff800031f6:	bf 20 00 00 00       	mov    $0x20,%edi
ffffffff800031fb:	49 83 c6 01          	add    $0x1,%r14
ffffffff800031ff:	41 ff d5             	callq  *%r13
    while (idx - start_idx < width) {
ffffffff80003202:	4c 39 e3             	cmp    %r12,%rbx
ffffffff80003205:	72 e1                	jb     ffffffff800031e8 <_ntoa_long+0x2c8>
ffffffff80003207:	4d 89 f7             	mov    %r14,%r15
  }

  return _ntoa_format(out, buffer, idx, maxlen, buf, len, negative, (unsigned int)base, prec, width, flags);
}
ffffffff8000320a:	48 83 c4 48          	add    $0x48,%rsp
ffffffff8000320e:	4c 89 f8             	mov    %r15,%rax
ffffffff80003211:	5b                   	pop    %rbx
ffffffff80003212:	41 5c                	pop    %r12
ffffffff80003214:	41 5d                	pop    %r13
ffffffff80003216:	41 5e                	pop    %r14
ffffffff80003218:	41 5f                	pop    %r15
ffffffff8000321a:	5d                   	pop    %rbp
ffffffff8000321b:	c3                   	retq   
ffffffff8000321c:	0f 1f 40 00          	nopl   0x0(%rax)
    if (!(flags & FLAGS_PRECISION) && len && ((len == prec) || (len == width))) {
ffffffff80003220:	48 85 db             	test   %rbx,%rbx
ffffffff80003223:	0f 84 f7 00 00 00    	je     ffffffff80003320 <_ntoa_long+0x400>
ffffffff80003229:	8b 55 18             	mov    0x18(%rbp),%edx
ffffffff8000322c:	48 39 d3             	cmp    %rdx,%rbx
ffffffff8000322f:	74 0c                	je     ffffffff8000323d <_ntoa_long+0x31d>
ffffffff80003231:	8b 55 20             	mov    0x20(%rbp),%edx
ffffffff80003234:	48 39 d3             	cmp    %rdx,%rbx
ffffffff80003237:	0f 85 43 fe ff ff    	jne    ffffffff80003080 <_ntoa_long+0x160>
      if (len && (base == 16U)) {
ffffffff8000323d:	48 8d 53 ff          	lea    -0x1(%rbx),%rdx
ffffffff80003241:	48 83 fb 01          	cmp    $0x1,%rbx
ffffffff80003245:	0f 84 b7 01 00 00    	je     ffffffff80003402 <_ntoa_long+0x4e2>
ffffffff8000324b:	83 ff 10             	cmp    $0x10,%edi
ffffffff8000324e:	0f 85 ae 01 00 00    	jne    ffffffff80003402 <_ntoa_long+0x4e2>
        len--;
ffffffff80003254:	48 83 eb 02          	sub    $0x2,%rbx
    if ((base == 16U) && !(flags & FLAGS_UPPERCASE) && (len < PRINTF_NTOA_BUFFER_SIZE)) {
ffffffff80003258:	41 f6 c2 20          	test   $0x20,%r10b
ffffffff8000325c:	0f 84 dc fe ff ff    	je     ffffffff8000313e <_ntoa_long+0x21e>
      buf[len++] = 'X';
ffffffff80003262:	c6 44 1d b0 58       	movb   $0x58,-0x50(%rbp,%rbx,1)
ffffffff80003267:	48 89 d3             	mov    %rdx,%rbx
ffffffff8000326a:	e9 e1 fe ff ff       	jmpq   ffffffff80003150 <_ntoa_long+0x230>
    if ((base == 16U) && !(flags & FLAGS_UPPERCASE) && (len < PRINTF_NTOA_BUFFER_SIZE)) {
ffffffff8000326f:	48 83 fb 20          	cmp    $0x20,%rbx
ffffffff80003273:	0f 85 9e 01 00 00    	jne    ffffffff80003417 <_ntoa_long+0x4f7>
  if (!(flags & FLAGS_LEFT) && !(flags & FLAGS_ZEROPAD)) {
ffffffff80003279:	85 d2                	test   %edx,%edx
ffffffff8000327b:	0f 85 ef fe ff ff    	jne    ffffffff80003170 <_ntoa_long+0x250>
ffffffff80003281:	0f 1f 80 00 00 00 00 	nopl   0x0(%rax)
    for (size_t i = len; i < width; i++) {
ffffffff80003288:	83 7d 20 20          	cmpl   $0x20,0x20(%rbp)
ffffffff8000328c:	8b 4d 20             	mov    0x20(%rbp),%ecx
ffffffff8000328f:	0f 87 2d fe ff ff    	ja     ffffffff800030c2 <_ntoa_long+0x1a2>
ffffffff80003295:	e9 d6 fe ff ff       	jmpq   ffffffff80003170 <_ntoa_long+0x250>
ffffffff8000329a:	66 0f 1f 44 00 00    	nopw   0x0(%rax,%rax,1)
  if (!(flags & FLAGS_LEFT)) {
ffffffff800032a0:	41 83 e2 02          	and    $0x2,%r10d
ffffffff800032a4:	45 89 d0             	mov    %r10d,%r8d
ffffffff800032a7:	0f 84 b3 00 00 00    	je     ffffffff80003360 <_ntoa_long+0x440>
ffffffff800032ad:	41 89 d2             	mov    %edx,%r10d
  size_t len = 0U;
ffffffff800032b0:	31 db                	xor    %ebx,%ebx
  if (!(flags & FLAGS_LEFT) && !(flags & FLAGS_ZEROPAD)) {
ffffffff800032b2:	44 89 d2             	mov    %r10d,%edx
ffffffff800032b5:	83 e2 03             	and    $0x3,%edx
    if (negative) {
ffffffff800032b8:	40 84 f6             	test   %sil,%sil
ffffffff800032bb:	74 3b                	je     ffffffff800032f8 <_ntoa_long+0x3d8>
      buf[len++] = '-';
ffffffff800032bd:	c6 44 1d b0 2d       	movb   $0x2d,-0x50(%rbp,%rbx,1)
ffffffff800032c2:	48 8d 43 01          	lea    0x1(%rbx),%rax
  if (!(flags & FLAGS_LEFT) && !(flags & FLAGS_ZEROPAD)) {
ffffffff800032c6:	85 d2                	test   %edx,%edx
ffffffff800032c8:	75 45                	jne    ffffffff8000330f <_ntoa_long+0x3ef>
    for (size_t i = len; i < width; i++) {
ffffffff800032ca:	8b 4d 20             	mov    0x20(%rbp),%ecx
      buf[len++] = '-';
ffffffff800032cd:	48 89 c3             	mov    %rax,%rbx
    for (size_t i = len; i < width; i++) {
ffffffff800032d0:	48 39 c8             	cmp    %rcx,%rax
ffffffff800032d3:	0f 82 e9 fd ff ff    	jb     ffffffff800030c2 <_ntoa_long+0x1a2>
ffffffff800032d9:	e9 92 fe ff ff       	jmpq   ffffffff80003170 <_ntoa_long+0x250>
ffffffff800032de:	66 90                	xchg   %ax,%ax
    flags &= ~FLAGS_HASH;
ffffffff800032e0:	44 89 d2             	mov    %r10d,%edx
ffffffff800032e3:	83 e2 ef             	and    $0xffffffef,%edx
  if (!(flags & FLAGS_PRECISION) || value) {
ffffffff800032e6:	45 85 ff             	test   %r15d,%r15d
ffffffff800032e9:	75 b5                	jne    ffffffff800032a0 <_ntoa_long+0x380>
ffffffff800032eb:	31 c9                	xor    %ecx,%ecx
ffffffff800032ed:	41 89 d2             	mov    %edx,%r10d
ffffffff800032f0:	e9 6d fc ff ff       	jmpq   ffffffff80002f62 <_ntoa_long+0x42>
ffffffff800032f5:	0f 1f 00             	nopl   (%rax)
    else if (flags & FLAGS_PLUS) {
ffffffff800032f8:	41 f6 c2 04          	test   $0x4,%r10b
ffffffff800032fc:	0f 84 9e 00 00 00    	je     ffffffff800033a0 <_ntoa_long+0x480>
      buf[len++] = '+';  // ignore the space if the '+' exists
ffffffff80003302:	c6 44 1d b0 2b       	movb   $0x2b,-0x50(%rbp,%rbx,1)
ffffffff80003307:	48 8d 43 01          	lea    0x1(%rbx),%rax
  if (!(flags & FLAGS_LEFT) && !(flags & FLAGS_ZEROPAD)) {
ffffffff8000330b:	85 d2                	test   %edx,%edx
ffffffff8000330d:	74 bb                	je     ffffffff800032ca <_ntoa_long+0x3aa>
ffffffff8000330f:	4c 8b 7d a0          	mov    -0x60(%rbp),%r15
      buf[len++] = ' ';
ffffffff80003313:	48 89 c3             	mov    %rax,%rbx
ffffffff80003316:	e9 59 fe ff ff       	jmpq   ffffffff80003174 <_ntoa_long+0x254>
ffffffff8000331b:	0f 1f 44 00 00       	nopl   0x0(%rax,%rax,1)
    if ((base == 16U) && !(flags & FLAGS_UPPERCASE) && (len < PRINTF_NTOA_BUFFER_SIZE)) {
ffffffff80003320:	48 83 ff 10          	cmp    $0x10,%rdi
ffffffff80003324:	0f 84 06 01 00 00    	je     ffffffff80003430 <_ntoa_long+0x510>
    else if ((base == 2U) && (len < PRINTF_NTOA_BUFFER_SIZE)) {
ffffffff8000332a:	48 83 ff 02          	cmp    $0x2,%rdi
ffffffff8000332e:	0f 85 c0 00 00 00    	jne    ffffffff800033f4 <_ntoa_long+0x4d4>
ffffffff80003334:	ba 62 00 00 00       	mov    $0x62,%edx
      buf[len++] = 'x';
ffffffff80003339:	88 55 b0             	mov    %dl,-0x50(%rbp)
      buf[len++] = '0';
ffffffff8000333c:	bb 02 00 00 00       	mov    $0x2,%ebx
ffffffff80003341:	c6 45 b1 30          	movb   $0x30,-0x4f(%rbp)
  if (len < PRINTF_NTOA_BUFFER_SIZE) {
ffffffff80003345:	e9 68 ff ff ff       	jmpq   ffffffff800032b2 <_ntoa_long+0x392>
ffffffff8000334a:	66 0f 1f 44 00 00    	nopw   0x0(%rax,%rax,1)
    while ((len < prec) && (len < PRINTF_NTOA_BUFFER_SIZE)) {
ffffffff80003350:	45 84 c9             	test   %r9b,%r9b
ffffffff80003353:	0f 85 bc fc ff ff    	jne    ffffffff80003015 <_ntoa_long+0xf5>
ffffffff80003359:	e9 11 fd ff ff       	jmpq   ffffffff8000306f <_ntoa_long+0x14f>
ffffffff8000335e:	66 90                	xchg   %ax,%ax
  if (!(flags & FLAGS_LEFT)) {
ffffffff80003360:	31 c9                	xor    %ecx,%ecx
ffffffff80003362:	41 89 d2             	mov    %edx,%r10d
  size_t len = 0U;
ffffffff80003365:	31 db                	xor    %ebx,%ebx
ffffffff80003367:	e9 5e fc ff ff       	jmpq   ffffffff80002fca <_ntoa_long+0xaa>
ffffffff8000336c:	0f 1f 40 00          	nopl   0x0(%rax)
  if (!(flags & FLAGS_LEFT) && !(flags & FLAGS_ZEROPAD)) {
ffffffff80003370:	44 89 d2             	mov    %r10d,%edx
ffffffff80003373:	83 e2 03             	and    $0x3,%edx
    if ((base == 16U) && !(flags & FLAGS_UPPERCASE) && (len < PRINTF_NTOA_BUFFER_SIZE)) {
ffffffff80003376:	41 f6 c2 20          	test   $0x20,%r10b
ffffffff8000337a:	0f 84 ef fe ff ff    	je     ffffffff8000326f <_ntoa_long+0x34f>
    for (size_t i = len; i < width; i++) {
ffffffff80003380:	48 8d 4b 01          	lea    0x1(%rbx),%rcx
    else if ((base == 16U) && (flags & FLAGS_UPPERCASE) && (len < PRINTF_NTOA_BUFFER_SIZE)) {
ffffffff80003384:	48 83 fb 20          	cmp    $0x20,%rbx
ffffffff80003388:	74 3e                	je     ffffffff800033c8 <_ntoa_long+0x4a8>
      buf[len++] = 'X';
ffffffff8000338a:	c6 44 1d b0 58       	movb   $0x58,-0x50(%rbp,%rbx,1)
ffffffff8000338f:	48 89 cb             	mov    %rcx,%rbx
ffffffff80003392:	e9 0a fd ff ff       	jmpq   ffffffff800030a1 <_ntoa_long+0x181>
ffffffff80003397:	66 0f 1f 84 00 00 00 	nopw   0x0(%rax,%rax,1)
ffffffff8000339e:	00 00 
    else if (flags & FLAGS_SPACE) {
ffffffff800033a0:	41 83 e2 08          	and    $0x8,%r10d
ffffffff800033a4:	75 38                	jne    ffffffff800033de <_ntoa_long+0x4be>
  if (!(flags & FLAGS_LEFT) && !(flags & FLAGS_ZEROPAD)) {
ffffffff800033a6:	4c 8b 7d a0          	mov    -0x60(%rbp),%r15
ffffffff800033aa:	85 d2                	test   %edx,%edx
ffffffff800033ac:	0f 85 85 fd ff ff    	jne    ffffffff80003137 <_ntoa_long+0x217>
    for (size_t i = len; i < width; i++) {
ffffffff800033b2:	8b 4d 20             	mov    0x20(%rbp),%ecx
ffffffff800033b5:	48 39 cb             	cmp    %rcx,%rbx
ffffffff800033b8:	0f 82 04 fd ff ff    	jb     ffffffff800030c2 <_ntoa_long+0x1a2>
ffffffff800033be:	e9 74 fd ff ff       	jmpq   ffffffff80003137 <_ntoa_long+0x217>
ffffffff800033c3:	0f 1f 44 00 00       	nopl   0x0(%rax,%rax,1)
  if (!(flags & FLAGS_LEFT) && !(flags & FLAGS_ZEROPAD)) {
ffffffff800033c8:	85 d2                	test   %edx,%edx
ffffffff800033ca:	0f 84 e5 fc ff ff    	je     ffffffff800030b5 <_ntoa_long+0x195>
      buf[len++] = '-';
ffffffff800033d0:	4c 8b 7d a0          	mov    -0x60(%rbp),%r15
ffffffff800033d4:	bb 20 00 00 00       	mov    $0x20,%ebx
ffffffff800033d9:	e9 96 fd ff ff       	jmpq   ffffffff80003174 <_ntoa_long+0x254>
      buf[len++] = ' ';
ffffffff800033de:	c6 44 1d b0 20       	movb   $0x20,-0x50(%rbp,%rbx,1)
ffffffff800033e3:	48 8d 43 01          	lea    0x1(%rbx),%rax
  if (!(flags & FLAGS_LEFT) && !(flags & FLAGS_ZEROPAD)) {
ffffffff800033e7:	85 d2                	test   %edx,%edx
ffffffff800033e9:	0f 85 20 ff ff ff    	jne    ffffffff8000330f <_ntoa_long+0x3ef>
ffffffff800033ef:	e9 d6 fe ff ff       	jmpq   ffffffff800032ca <_ntoa_long+0x3aa>
      buf[len++] = '0';
ffffffff800033f4:	c6 45 b0 30          	movb   $0x30,-0x50(%rbp)
ffffffff800033f8:	bb 01 00 00 00       	mov    $0x1,%ebx
ffffffff800033fd:	e9 b0 fe ff ff       	jmpq   ffffffff800032b2 <_ntoa_long+0x392>
    if ((base == 16U) && !(flags & FLAGS_UPPERCASE) && (len < PRINTF_NTOA_BUFFER_SIZE)) {
ffffffff80003402:	48 83 ff 10          	cmp    $0x10,%rdi
ffffffff80003406:	74 3e                	je     ffffffff80003446 <_ntoa_long+0x526>
    else if ((base == 2U) && (len < PRINTF_NTOA_BUFFER_SIZE)) {
ffffffff80003408:	48 83 ff 02          	cmp    $0x2,%rdi
ffffffff8000340c:	0f 84 8a fc ff ff    	je     ffffffff8000309c <_ntoa_long+0x17c>
ffffffff80003412:	e9 40 fd ff ff       	jmpq   ffffffff80003157 <_ntoa_long+0x237>
    for (size_t i = len; i < width; i++) {
ffffffff80003417:	48 89 da             	mov    %rbx,%rdx
ffffffff8000341a:	48 83 c3 01          	add    $0x1,%rbx
      buf[len++] = 'x';
ffffffff8000341e:	c6 44 15 b0 78       	movb   $0x78,-0x50(%rbp,%rdx,1)
ffffffff80003423:	e9 79 fc ff ff       	jmpq   ffffffff800030a1 <_ntoa_long+0x181>
ffffffff80003428:	0f 1f 84 00 00 00 00 	nopl   0x0(%rax,%rax,1)
ffffffff8000342f:	00 
    if ((base == 16U) && !(flags & FLAGS_UPPERCASE) && (len < PRINTF_NTOA_BUFFER_SIZE)) {
ffffffff80003430:	44 89 d2             	mov    %r10d,%edx
ffffffff80003433:	83 e2 20             	and    $0x20,%edx
ffffffff80003436:	83 fa 01             	cmp    $0x1,%edx
ffffffff80003439:	19 d2                	sbb    %edx,%edx
ffffffff8000343b:	83 e2 20             	and    $0x20,%edx
ffffffff8000343e:	83 c2 58             	add    $0x58,%edx
ffffffff80003441:	e9 f3 fe ff ff       	jmpq   ffffffff80003339 <_ntoa_long+0x419>
ffffffff80003446:	41 f6 c2 20          	test   $0x20,%r10b
ffffffff8000344a:	74 d2                	je     ffffffff8000341e <_ntoa_long+0x4fe>
ffffffff8000344c:	48 89 d9             	mov    %rbx,%rcx
      len--;
ffffffff8000344f:	48 89 d3             	mov    %rdx,%rbx
ffffffff80003452:	e9 33 ff ff ff       	jmpq   ffffffff8000338a <_ntoa_long+0x46a>
ffffffff80003457:	66 0f 1f 84 00 00 00 	nopw   0x0(%rax,%rax,1)
ffffffff8000345e:	00 00 

ffffffff80003460 <_out_char>:
  if (character) {
ffffffff80003460:	40 84 ff             	test   %dil,%dil
ffffffff80003463:	75 0b                	jne    ffffffff80003470 <_out_char+0x10>
}
ffffffff80003465:	c3                   	retq   
ffffffff80003466:	66 2e 0f 1f 84 00 00 	nopw   %cs:0x0(%rax,%rax,1)
ffffffff8000346d:	00 00 00 
    _putchar(character);
ffffffff80003470:	40 0f be ff          	movsbl %dil,%edi
ffffffff80003474:	e9 e7 0c 00 00       	jmpq   ffffffff80004160 <_putchar>
ffffffff80003479:	0f 1f 80 00 00 00 00 	nopl   0x0(%rax)

ffffffff80003480 <_out_fct>:
  if (character) {
ffffffff80003480:	40 84 ff             	test   %dil,%dil
ffffffff80003483:	74 13                	je     ffffffff80003498 <_out_fct+0x18>
    ((out_fct_wrap_type*)buffer)->fct(character, ((out_fct_wrap_type*)buffer)->arg);
ffffffff80003485:	48 8b 56 08          	mov    0x8(%rsi),%rdx
ffffffff80003489:	48 8b 06             	mov    (%rsi),%rax
ffffffff8000348c:	40 0f be ff          	movsbl %dil,%edi
ffffffff80003490:	48 89 d6             	mov    %rdx,%rsi
ffffffff80003493:	ff e0                	jmpq   *%rax
ffffffff80003495:	0f 1f 00             	nopl   (%rax)
}
ffffffff80003498:	c3                   	retq   
ffffffff80003499:	0f 1f 80 00 00 00 00 	nopl   0x0(%rax)

ffffffff800034a0 <_vsnprintf>:
#endif  // PRINTF_SUPPORT_FLOAT


// internal vsnprintf
static int _vsnprintf(out_fct_type out, char* buffer, const size_t maxlen, const char* format, va_list va)
{
ffffffff800034a0:	55                   	push   %rbp
  unsigned int flags, width, precision, n;
  size_t idx = 0U;

  if (!buffer) {
    // use null output function
    out = _out_null;
ffffffff800034a1:	48 c7 c0 10 2f 00 80 	mov    $0xffffffff80002f10,%rax
{
ffffffff800034a8:	48 89 e5             	mov    %rsp,%rbp
ffffffff800034ab:	41 57                	push   %r15
ffffffff800034ad:	41 56                	push   %r14
ffffffff800034af:	41 55                	push   %r13
ffffffff800034b1:	41 54                	push   %r12
ffffffff800034b3:	49 89 f4             	mov    %rsi,%r12
ffffffff800034b6:	53                   	push   %rbx
ffffffff800034b7:	48 89 d3             	mov    %rdx,%rbx
ffffffff800034ba:	48 83 ec 48          	sub    $0x48,%rsp
    out = _out_null;
ffffffff800034be:	48 85 f6             	test   %rsi,%rsi
  }

  while (*format)
ffffffff800034c1:	0f b6 11             	movzbl (%rcx),%edx
    out = _out_null;
ffffffff800034c4:	48 0f 45 c7          	cmovne %rdi,%rax
ffffffff800034c8:	49 89 c5             	mov    %rax,%r13
  while (*format)
ffffffff800034cb:	31 c0                	xor    %eax,%eax
ffffffff800034cd:	84 d2                	test   %dl,%dl
ffffffff800034cf:	0f 84 b2 07 00 00    	je     ffffffff80003c87 <_vsnprintf+0x7e7>
ffffffff800034d5:	4c 89 45 b0          	mov    %r8,-0x50(%rbp)
ffffffff800034d9:	49 89 cf             	mov    %rcx,%r15
ffffffff800034dc:	eb 24                	jmp    ffffffff80003502 <_vsnprintf+0x62>
ffffffff800034de:	66 90                	xchg   %ax,%ax
  {
    // format specifier?  %[flags][width][.precision][length]
    if (*format != '%') {
      // no
      out(*format, buffer, idx++, maxlen);
ffffffff800034e0:	4c 8d 70 01          	lea    0x1(%rax),%r14
ffffffff800034e4:	0f be fa             	movsbl %dl,%edi
        out('%', buffer, idx++, maxlen);
        format++;
        break;

      default :
        out(*format, buffer, idx++, maxlen);
ffffffff800034e7:	48 89 d9             	mov    %rbx,%rcx
ffffffff800034ea:	48 89 c2             	mov    %rax,%rdx
ffffffff800034ed:	4c 89 e6             	mov    %r12,%rsi
ffffffff800034f0:	41 ff d5             	callq  *%r13
ffffffff800034f3:	4c 89 f0             	mov    %r14,%rax
  while (*format)
ffffffff800034f6:	41 0f b6 17          	movzbl (%r15),%edx
ffffffff800034fa:	84 d2                	test   %dl,%dl
ffffffff800034fc:	0f 84 ee 01 00 00    	je     ffffffff800036f0 <_vsnprintf+0x250>
      format++;
ffffffff80003502:	49 83 c7 01          	add    $0x1,%r15
    if (*format != '%') {
ffffffff80003506:	80 fa 25             	cmp    $0x25,%dl
ffffffff80003509:	75 d5                	jne    ffffffff800034e0 <_vsnprintf+0x40>
    flags = 0U;
ffffffff8000350b:	45 31 f6             	xor    %r14d,%r14d
ffffffff8000350e:	66 90                	xchg   %ax,%ax
      switch (*format) {
ffffffff80003510:	41 0f be 3f          	movsbl (%r15),%edi
      format++;
ffffffff80003514:	49 8d 4f 01          	lea    0x1(%r15),%rcx
      switch (*format) {
ffffffff80003518:	8d 57 e0             	lea    -0x20(%rdi),%edx
ffffffff8000351b:	80 fa 10             	cmp    $0x10,%dl
ffffffff8000351e:	77 10                	ja     ffffffff80003530 <_vsnprintf+0x90>
ffffffff80003520:	0f b6 d2             	movzbl %dl,%edx
ffffffff80003523:	ff 24 d5 28 59 00 80 	jmpq   *-0x7fffa6d8(,%rdx,8)
ffffffff8000352a:	66 0f 1f 44 00 00    	nopw   0x0(%rax,%rax,1)
  return (ch >= '0') && (ch <= '9');
ffffffff80003530:	8d 57 d0             	lea    -0x30(%rdi),%edx
    if (_is_digit(*format)) {
ffffffff80003533:	80 fa 09             	cmp    $0x9,%dl
ffffffff80003536:	0f 86 d4 02 00 00    	jbe    ffffffff80003810 <_vsnprintf+0x370>
    width = 0U;
ffffffff8000353c:	45 31 db             	xor    %r11d,%r11d
    else if (*format == '*') {
ffffffff8000353f:	40 80 ff 2a          	cmp    $0x2a,%dil
ffffffff80003543:	0f 84 7f 03 00 00    	je     ffffffff800038c8 <_vsnprintf+0x428>
    precision = 0U;
ffffffff80003549:	31 f6                	xor    %esi,%esi
    if (*format == '.') {
ffffffff8000354b:	40 80 ff 2e          	cmp    $0x2e,%dil
ffffffff8000354f:	0f 84 eb 02 00 00    	je     ffffffff80003840 <_vsnprintf+0x3a0>
        format++;
ffffffff80003555:	48 89 ca             	mov    %rcx,%rdx
    switch (*format) {
ffffffff80003558:	40 80 ff 6c          	cmp    $0x6c,%dil
ffffffff8000355c:	0f 84 1e 03 00 00    	je     ffffffff80003880 <_vsnprintf+0x3e0>
ffffffff80003562:	0f 8f b8 01 00 00    	jg     ffffffff80003720 <_vsnprintf+0x280>
ffffffff80003568:	40 80 ff 68          	cmp    $0x68,%dil
ffffffff8000356c:	0f 84 a6 03 00 00    	je     ffffffff80003918 <_vsnprintf+0x478>
ffffffff80003572:	40 80 ff 6a          	cmp    $0x6a,%dil
ffffffff80003576:	0f 85 1e 0a 00 00    	jne    ffffffff80003f9a <_vsnprintf+0xafa>
        if (*format == 'l') {
ffffffff8000357c:	41 0f be 7f 01       	movsbl 0x1(%r15),%edi
        flags |= (sizeof(size_t) == sizeof(long) ? FLAGS_LONG : FLAGS_LONG_LONG);
ffffffff80003581:	41 81 ce 00 01 00 00 	or     $0x100,%r14d
        format++;
ffffffff80003588:	4c 8d 7a 01          	lea    0x1(%rdx),%r15
    switch (*format) {
ffffffff8000358c:	40 80 ff 78          	cmp    $0x78,%dil
ffffffff80003590:	0f 8f c8 01 00 00    	jg     ffffffff8000375e <_vsnprintf+0x2be>
ffffffff80003596:	40 80 ff 63          	cmp    $0x63,%dil
ffffffff8000359a:	0f 8f 93 01 00 00    	jg     ffffffff80003733 <_vsnprintf+0x293>
ffffffff800035a0:	40 80 ff 62          	cmp    $0x62,%dil
ffffffff800035a4:	0f 84 d9 07 00 00    	je     ffffffff80003d83 <_vsnprintf+0x8e3>
ffffffff800035aa:	40 80 ff 63          	cmp    $0x63,%dil
ffffffff800035ae:	0f 85 0c 01 00 00    	jne    ffffffff800036c0 <_vsnprintf+0x220>
        if (!(flags & FLAGS_LEFT)) {
ffffffff800035b4:	41 83 e6 02          	and    $0x2,%r14d
        unsigned int l = 1U;
ffffffff800035b8:	c7 45 a8 01 00 00 00 	movl   $0x1,-0x58(%rbp)
        if (!(flags & FLAGS_LEFT)) {
ffffffff800035bf:	44 89 75 c0          	mov    %r14d,-0x40(%rbp)
ffffffff800035c3:	0f 84 8e 05 00 00    	je     ffffffff80003b57 <_vsnprintf+0x6b7>
        out((char)va_arg(va, int), buffer, idx++, maxlen);
ffffffff800035c9:	48 8b 75 b0          	mov    -0x50(%rbp),%rsi
ffffffff800035cd:	4c 8d 70 01          	lea    0x1(%rax),%r14
ffffffff800035d1:	8b 16                	mov    (%rsi),%edx
ffffffff800035d3:	83 fa 2f             	cmp    $0x2f,%edx
ffffffff800035d6:	0f 87 31 05 00 00    	ja     ffffffff80003b0d <_vsnprintf+0x66d>
ffffffff800035dc:	89 d1                	mov    %edx,%ecx
ffffffff800035de:	83 c2 08             	add    $0x8,%edx
ffffffff800035e1:	48 03 4e 10          	add    0x10(%rsi),%rcx
ffffffff800035e5:	89 16                	mov    %edx,(%rsi)
ffffffff800035e7:	48 89 c2             	mov    %rax,%rdx
ffffffff800035ea:	44 89 5d b8          	mov    %r11d,-0x48(%rbp)
ffffffff800035ee:	0f be 39             	movsbl (%rcx),%edi
ffffffff800035f1:	4c 89 e6             	mov    %r12,%rsi
ffffffff800035f4:	48 89 45 c8          	mov    %rax,-0x38(%rbp)
ffffffff800035f8:	48 89 d9             	mov    %rbx,%rcx
ffffffff800035fb:	41 ff d5             	callq  *%r13
        if (flags & FLAGS_LEFT) {
ffffffff800035fe:	8b 55 c0             	mov    -0x40(%rbp),%edx
ffffffff80003601:	48 8b 45 c8          	mov    -0x38(%rbp),%rax
ffffffff80003605:	44 8b 5d b8          	mov    -0x48(%rbp),%r11d
ffffffff80003609:	85 d2                	test   %edx,%edx
ffffffff8000360b:	0f 84 e2 fe ff ff    	je     ffffffff800034f3 <_vsnprintf+0x53>
          while (l++ < width) {
ffffffff80003611:	8b 75 a8             	mov    -0x58(%rbp),%esi
ffffffff80003614:	44 39 de             	cmp    %r11d,%esi
ffffffff80003617:	0f 83 d6 fe ff ff    	jae    ffffffff800034f3 <_vsnprintf+0x53>
ffffffff8000361d:	41 83 eb 01          	sub    $0x1,%r11d
ffffffff80003621:	4c 89 7d c8          	mov    %r15,-0x38(%rbp)
ffffffff80003625:	4d 89 f7             	mov    %r14,%r15
ffffffff80003628:	49 89 de             	mov    %rbx,%r14
ffffffff8000362b:	41 29 f3             	sub    %esi,%r11d
ffffffff8000362e:	4a 8d 44 18 02       	lea    0x2(%rax,%r11,1),%rax
ffffffff80003633:	48 89 c3             	mov    %rax,%rbx
ffffffff80003636:	66 2e 0f 1f 84 00 00 	nopw   %cs:0x0(%rax,%rax,1)
ffffffff8000363d:	00 00 00 
            out(' ', buffer, idx++, maxlen);
ffffffff80003640:	4c 89 fa             	mov    %r15,%rdx
ffffffff80003643:	49 83 c7 01          	add    $0x1,%r15
ffffffff80003647:	4c 89 f1             	mov    %r14,%rcx
ffffffff8000364a:	4c 89 e6             	mov    %r12,%rsi
ffffffff8000364d:	bf 20 00 00 00       	mov    $0x20,%edi
ffffffff80003652:	41 ff d5             	callq  *%r13
          while (l++ < width) {
ffffffff80003655:	49 39 df             	cmp    %rbx,%r15
ffffffff80003658:	75 e6                	jne    ffffffff80003640 <_vsnprintf+0x1a0>
ffffffff8000365a:	4c 89 f3             	mov    %r14,%rbx
ffffffff8000365d:	4d 89 fe             	mov    %r15,%r14
ffffffff80003660:	4c 8b 7d c8          	mov    -0x38(%rbp),%r15
        break;
ffffffff80003664:	e9 8a fe ff ff       	jmpq   ffffffff800034f3 <_vsnprintf+0x53>
ffffffff80003669:	0f 1f 80 00 00 00 00 	nopl   0x0(%rax)
        case '0': flags |= FLAGS_ZEROPAD; format++; n = 1U; break;
ffffffff80003670:	41 83 ce 01          	or     $0x1,%r14d
      format++;
ffffffff80003674:	49 89 cf             	mov    %rcx,%r15
ffffffff80003677:	e9 94 fe ff ff       	jmpq   ffffffff80003510 <_vsnprintf+0x70>
ffffffff8000367c:	0f 1f 40 00          	nopl   0x0(%rax)
        case '-': flags |= FLAGS_LEFT;    format++; n = 1U; break;
ffffffff80003680:	41 83 ce 02          	or     $0x2,%r14d
ffffffff80003684:	eb ee                	jmp    ffffffff80003674 <_vsnprintf+0x1d4>
ffffffff80003686:	66 2e 0f 1f 84 00 00 	nopw   %cs:0x0(%rax,%rax,1)
ffffffff8000368d:	00 00 00 
        case '+': flags |= FLAGS_PLUS;    format++; n = 1U; break;
ffffffff80003690:	41 83 ce 04          	or     $0x4,%r14d
ffffffff80003694:	eb de                	jmp    ffffffff80003674 <_vsnprintf+0x1d4>
ffffffff80003696:	66 2e 0f 1f 84 00 00 	nopw   %cs:0x0(%rax,%rax,1)
ffffffff8000369d:	00 00 00 
        case '#': flags |= FLAGS_HASH;    format++; n = 1U; break;
ffffffff800036a0:	41 83 ce 10          	or     $0x10,%r14d
ffffffff800036a4:	eb ce                	jmp    ffffffff80003674 <_vsnprintf+0x1d4>
ffffffff800036a6:	66 2e 0f 1f 84 00 00 	nopw   %cs:0x0(%rax,%rax,1)
ffffffff800036ad:	00 00 00 
        case ' ': flags |= FLAGS_SPACE;   format++; n = 1U; break;
ffffffff800036b0:	41 83 ce 08          	or     $0x8,%r14d
ffffffff800036b4:	eb be                	jmp    ffffffff80003674 <_vsnprintf+0x1d4>
ffffffff800036b6:	66 2e 0f 1f 84 00 00 	nopw   %cs:0x0(%rax,%rax,1)
ffffffff800036bd:	00 00 00 
    switch (*format) {
ffffffff800036c0:	40 80 ff 25          	cmp    $0x25,%dil
ffffffff800036c4:	0f 85 a6 00 00 00    	jne    ffffffff80003770 <_vsnprintf+0x2d0>
        out('%', buffer, idx++, maxlen);
ffffffff800036ca:	48 89 c2             	mov    %rax,%rdx
ffffffff800036cd:	4c 8d 70 01          	lea    0x1(%rax),%r14
ffffffff800036d1:	48 89 d9             	mov    %rbx,%rcx
ffffffff800036d4:	4c 89 e6             	mov    %r12,%rsi
ffffffff800036d7:	bf 25 00 00 00       	mov    $0x25,%edi
ffffffff800036dc:	41 ff d5             	callq  *%r13
  while (*format)
ffffffff800036df:	41 0f b6 17          	movzbl (%r15),%edx
        out('%', buffer, idx++, maxlen);
ffffffff800036e3:	4c 89 f0             	mov    %r14,%rax
  while (*format)
ffffffff800036e6:	84 d2                	test   %dl,%dl
ffffffff800036e8:	0f 85 14 fe ff ff    	jne    ffffffff80003502 <_vsnprintf+0x62>
ffffffff800036ee:	66 90                	xchg   %ax,%ax

  // termination
  out((char)0, buffer, idx < maxlen ? idx : maxlen - 1U, maxlen);

  // return written chars without terminating \0
  return (int)idx;
ffffffff800036f0:	41 89 c6             	mov    %eax,%r14d
  out((char)0, buffer, idx < maxlen ? idx : maxlen - 1U, maxlen);
ffffffff800036f3:	48 39 d8             	cmp    %rbx,%rax
ffffffff800036f6:	48 8d 53 ff          	lea    -0x1(%rbx),%rdx
ffffffff800036fa:	48 89 d9             	mov    %rbx,%rcx
ffffffff800036fd:	4c 89 e6             	mov    %r12,%rsi
ffffffff80003700:	48 0f 43 c2          	cmovae %rdx,%rax
ffffffff80003704:	31 ff                	xor    %edi,%edi
ffffffff80003706:	48 89 c2             	mov    %rax,%rdx
ffffffff80003709:	41 ff d5             	callq  *%r13
}
ffffffff8000370c:	48 8d 65 d8          	lea    -0x28(%rbp),%rsp
ffffffff80003710:	44 89 f0             	mov    %r14d,%eax
ffffffff80003713:	5b                   	pop    %rbx
ffffffff80003714:	41 5c                	pop    %r12
ffffffff80003716:	41 5d                	pop    %r13
ffffffff80003718:	41 5e                	pop    %r14
ffffffff8000371a:	41 5f                	pop    %r15
ffffffff8000371c:	5d                   	pop    %rbp
ffffffff8000371d:	c3                   	retq   
ffffffff8000371e:	66 90                	xchg   %ax,%ax
    switch (*format) {
ffffffff80003720:	40 80 ff 7a          	cmp    $0x7a,%dil
ffffffff80003724:	0f 84 52 fe ff ff    	je     ffffffff8000357c <_vsnprintf+0xdc>
        format++;
ffffffff8000372a:	49 89 cf             	mov    %rcx,%r15
    switch (*format) {
ffffffff8000372d:	40 80 ff 78          	cmp    $0x78,%dil
ffffffff80003731:	7f 2b                	jg     ffffffff8000375e <_vsnprintf+0x2be>
ffffffff80003733:	8d 4f 9c             	lea    -0x64(%rdi),%ecx
ffffffff80003736:	ba 01 00 00 00       	mov    $0x1,%edx
ffffffff8000373b:	48 d3 e2             	shl    %cl,%rdx
ffffffff8000373e:	f7 c2 21 08 12 00    	test   $0x120821,%edx
ffffffff80003744:	0f 85 f9 07 00 00    	jne    ffffffff80003f43 <_vsnprintf+0xaa3>
ffffffff8000374a:	40 80 ff 73          	cmp    $0x73,%dil
ffffffff8000374e:	0f 84 21 02 00 00    	je     ffffffff80003975 <_vsnprintf+0x4d5>
ffffffff80003754:	40 80 ff 70          	cmp    $0x70,%dil
ffffffff80003758:	0f 84 d2 01 00 00    	je     ffffffff80003930 <_vsnprintf+0x490>
        out(*format, buffer, idx++, maxlen);
ffffffff8000375e:	4c 8d 70 01          	lea    0x1(%rax),%r14
ffffffff80003762:	e9 80 fd ff ff       	jmpq   ffffffff800034e7 <_vsnprintf+0x47>
ffffffff80003767:	66 0f 1f 84 00 00 00 	nopw   0x0(%rax,%rax,1)
ffffffff8000376e:	00 00 
          flags |= FLAGS_UPPERCASE;
ffffffff80003770:	41 83 ce 20          	or     $0x20,%r14d
ffffffff80003774:	ba 10 00 00 00       	mov    $0x10,%edx
    switch (*format) {
ffffffff80003779:	40 80 ff 58          	cmp    $0x58,%dil
ffffffff8000377d:	75 df                	jne    ffffffff8000375e <_vsnprintf+0x2be>
          flags &= ~(FLAGS_PLUS | FLAGS_SPACE);
ffffffff8000377f:	41 83 e6 f3          	and    $0xfffffff3,%r14d
          flags &= ~FLAGS_ZEROPAD;
ffffffff80003783:	44 89 f1             	mov    %r14d,%ecx
ffffffff80003786:	83 e1 fe             	and    $0xfffffffe,%ecx
ffffffff80003789:	41 f7 c6 00 04 00 00 	test   $0x400,%r14d
ffffffff80003790:	44 0f 45 f1          	cmovne %ecx,%r14d
            const long long value = va_arg(va, long long);
ffffffff80003794:	48 8b 4d b0          	mov    -0x50(%rbp),%rcx
          if (flags & FLAGS_LONG_LONG) {
ffffffff80003798:	45 89 f0             	mov    %r14d,%r8d
            const long long value = va_arg(va, long long);
ffffffff8000379b:	8b 09                	mov    (%rcx),%ecx
          if (flags & FLAGS_LONG_LONG) {
ffffffff8000379d:	41 81 e0 00 02 00 00 	and    $0x200,%r8d
        if ((*format == 'i') || (*format == 'd')) {
ffffffff800037a4:	40 80 ff 69          	cmp    $0x69,%dil
ffffffff800037a8:	0f 84 13 04 00 00    	je     ffffffff80003bc1 <_vsnprintf+0x721>
ffffffff800037ae:	40 80 ff 64          	cmp    $0x64,%dil
ffffffff800037b2:	0f 84 09 04 00 00    	je     ffffffff80003bc1 <_vsnprintf+0x721>
          if (flags & FLAGS_LONG_LONG) {
ffffffff800037b8:	45 85 c0             	test   %r8d,%r8d
ffffffff800037bb:	0f 85 9f 05 00 00    	jne    ffffffff80003d60 <_vsnprintf+0x8c0>
          else if (flags & FLAGS_LONG) {
ffffffff800037c1:	41 f7 c6 00 01 00 00 	test   $0x100,%r14d
ffffffff800037c8:	0f 85 2a 06 00 00    	jne    ffffffff80003df8 <_vsnprintf+0x958>
            const unsigned int value = (flags & FLAGS_CHAR) ? (unsigned char)va_arg(va, unsigned int) : (flags & FLAGS_SHORT) ? (unsigned short int)va_arg(va, unsigned int) : va_arg(va, unsigned int);
ffffffff800037ce:	41 f6 c6 40          	test   $0x40,%r14b
ffffffff800037d2:	0f 85 d7 05 00 00    	jne    ffffffff80003daf <_vsnprintf+0x90f>
ffffffff800037d8:	41 f6 c6 80          	test   $0x80,%r14b
ffffffff800037dc:	0f 84 af 06 00 00    	je     ffffffff80003e91 <_vsnprintf+0x9f1>
ffffffff800037e2:	83 f9 2f             	cmp    $0x2f,%ecx
ffffffff800037e5:	0f 87 fe 06 00 00    	ja     ffffffff80003ee9 <_vsnprintf+0xa49>
ffffffff800037eb:	4c 8b 55 b0          	mov    -0x50(%rbp),%r10
ffffffff800037ef:	89 cf                	mov    %ecx,%edi
ffffffff800037f1:	83 c1 08             	add    $0x8,%ecx
ffffffff800037f4:	41 89 0a             	mov    %ecx,(%r10)
ffffffff800037f7:	49 03 7a 10          	add    0x10(%r10),%rdi
ffffffff800037fb:	44 0f b7 07          	movzwl (%rdi),%r8d
            idx = _ntoa_long(out, buffer, idx, maxlen, value, false, base, precision, width, flags);
ffffffff800037ff:	41 56                	push   %r14
ffffffff80003801:	45 31 c9             	xor    %r9d,%r9d
ffffffff80003804:	41 53                	push   %r11
ffffffff80003806:	56                   	push   %rsi
ffffffff80003807:	52                   	push   %rdx
ffffffff80003808:	e9 12 04 00 00       	jmpq   ffffffff80003c1f <_vsnprintf+0x77f>
ffffffff8000380d:	0f 1f 00             	nopl   (%rax)
  unsigned int i = 0U;
ffffffff80003810:	45 31 db             	xor    %r11d,%r11d
ffffffff80003813:	0f 1f 44 00 00       	nopl   0x0(%rax,%rax,1)
    i = i * 10U + (unsigned int)(*((*str)++) - '0');
ffffffff80003818:	43 8d 14 9b          	lea    (%r11,%r11,4),%edx
ffffffff8000381c:	49 89 cf             	mov    %rcx,%r15
ffffffff8000381f:	48 83 c1 01          	add    $0x1,%rcx
ffffffff80003823:	44 8d 5c 57 d0       	lea    -0x30(%rdi,%rdx,2),%r11d
  while (_is_digit(**str)) {
ffffffff80003828:	0f be 79 ff          	movsbl -0x1(%rcx),%edi
  return (ch >= '0') && (ch <= '9');
ffffffff8000382c:	8d 57 d0             	lea    -0x30(%rdi),%edx
  while (_is_digit(**str)) {
ffffffff8000382f:	80 fa 09             	cmp    $0x9,%dl
ffffffff80003832:	76 e4                	jbe    ffffffff80003818 <_vsnprintf+0x378>
    precision = 0U;
ffffffff80003834:	31 f6                	xor    %esi,%esi
    if (*format == '.') {
ffffffff80003836:	40 80 ff 2e          	cmp    $0x2e,%dil
ffffffff8000383a:	0f 85 15 fd ff ff    	jne    ffffffff80003555 <_vsnprintf+0xb5>
      if (_is_digit(*format)) {
ffffffff80003840:	41 0f be 7f 01       	movsbl 0x1(%r15),%edi
      format++;
ffffffff80003845:	48 89 ca             	mov    %rcx,%rdx
      flags |= FLAGS_PRECISION;
ffffffff80003848:	41 81 ce 00 04 00 00 	or     $0x400,%r14d
  return (ch >= '0') && (ch <= '9');
ffffffff8000384f:	44 8d 47 d0          	lea    -0x30(%rdi),%r8d
      if (_is_digit(*format)) {
ffffffff80003853:	41 80 f8 09          	cmp    $0x9,%r8b
ffffffff80003857:	76 47                	jbe    ffffffff800038a0 <_vsnprintf+0x400>
      else if (*format == '*') {
ffffffff80003859:	40 80 ff 2a          	cmp    $0x2a,%dil
ffffffff8000385d:	0f 84 bf 02 00 00    	je     ffffffff80003b22 <_vsnprintf+0x682>
      format++;
ffffffff80003863:	49 89 cf             	mov    %rcx,%r15
ffffffff80003866:	48 83 c1 01          	add    $0x1,%rcx
        format++;
ffffffff8000386a:	48 89 ca             	mov    %rcx,%rdx
    switch (*format) {
ffffffff8000386d:	40 80 ff 6c          	cmp    $0x6c,%dil
ffffffff80003871:	0f 85 eb fc ff ff    	jne    ffffffff80003562 <_vsnprintf+0xc2>
ffffffff80003877:	66 0f 1f 84 00 00 00 	nopw   0x0(%rax,%rax,1)
ffffffff8000387e:	00 00 
        if (*format == 'l') {
ffffffff80003880:	41 0f be 7f 01       	movsbl 0x1(%r15),%edi
ffffffff80003885:	40 80 ff 6c          	cmp    $0x6c,%dil
ffffffff80003889:	0f 84 b2 03 00 00    	je     ffffffff80003c41 <_vsnprintf+0x7a1>
        flags |= FLAGS_LONG;
ffffffff8000388f:	41 81 ce 00 01 00 00 	or     $0x100,%r14d
ffffffff80003896:	e9 ed fc ff ff       	jmpq   ffffffff80003588 <_vsnprintf+0xe8>
ffffffff8000389b:	0f 1f 44 00 00       	nopl   0x0(%rax,%rax,1)
    i = i * 10U + (unsigned int)(*((*str)++) - '0');
ffffffff800038a0:	8d 0c b6             	lea    (%rsi,%rsi,4),%ecx
ffffffff800038a3:	48 83 c2 01          	add    $0x1,%rdx
ffffffff800038a7:	8d 74 4f d0          	lea    -0x30(%rdi,%rcx,2),%esi
  while (_is_digit(**str)) {
ffffffff800038ab:	0f be 3a             	movsbl (%rdx),%edi
  return (ch >= '0') && (ch <= '9');
ffffffff800038ae:	8d 4f d0             	lea    -0x30(%rdi),%ecx
  while (_is_digit(**str)) {
ffffffff800038b1:	80 f9 09             	cmp    $0x9,%cl
ffffffff800038b4:	76 ea                	jbe    ffffffff800038a0 <_vsnprintf+0x400>
    i = i * 10U + (unsigned int)(*((*str)++) - '0');
ffffffff800038b6:	49 89 d7             	mov    %rdx,%r15
ffffffff800038b9:	48 8d 4a 01          	lea    0x1(%rdx),%rcx
ffffffff800038bd:	e9 93 fc ff ff       	jmpq   ffffffff80003555 <_vsnprintf+0xb5>
ffffffff800038c2:	66 0f 1f 44 00 00    	nopw   0x0(%rax,%rax,1)
      const int w = va_arg(va, int);
ffffffff800038c8:	48 8b 7d b0          	mov    -0x50(%rbp),%rdi
ffffffff800038cc:	8b 17                	mov    (%rdi),%edx
ffffffff800038ce:	83 fa 2f             	cmp    $0x2f,%edx
ffffffff800038d1:	77 2d                	ja     ffffffff80003900 <_vsnprintf+0x460>
ffffffff800038d3:	89 d6                	mov    %edx,%esi
ffffffff800038d5:	83 c2 08             	add    $0x8,%edx
ffffffff800038d8:	48 03 77 10          	add    0x10(%rdi),%rsi
ffffffff800038dc:	89 17                	mov    %edx,(%rdi)
ffffffff800038de:	44 8b 1e             	mov    (%rsi),%r11d
      if (w < 0) {
ffffffff800038e1:	45 85 db             	test   %r11d,%r11d
ffffffff800038e4:	79 07                	jns    ffffffff800038ed <_vsnprintf+0x44d>
        flags |= FLAGS_LEFT;    // reverse padding
ffffffff800038e6:	41 83 ce 02          	or     $0x2,%r14d
        width = (unsigned int)-w;
ffffffff800038ea:	41 f7 db             	neg    %r11d
    if (*format == '.') {
ffffffff800038ed:	41 0f be 7f 01       	movsbl 0x1(%r15),%edi
      format++;
ffffffff800038f2:	49 89 cf             	mov    %rcx,%r15
ffffffff800038f5:	48 83 c1 01          	add    $0x1,%rcx
ffffffff800038f9:	e9 4b fc ff ff       	jmpq   ffffffff80003549 <_vsnprintf+0xa9>
ffffffff800038fe:	66 90                	xchg   %ax,%ax
      const int w = va_arg(va, int);
ffffffff80003900:	48 8b 7d b0          	mov    -0x50(%rbp),%rdi
ffffffff80003904:	48 8b 77 08          	mov    0x8(%rdi),%rsi
ffffffff80003908:	48 8d 56 08          	lea    0x8(%rsi),%rdx
ffffffff8000390c:	48 89 57 08          	mov    %rdx,0x8(%rdi)
ffffffff80003910:	eb cc                	jmp    ffffffff800038de <_vsnprintf+0x43e>
ffffffff80003912:	66 0f 1f 44 00 00    	nopw   0x0(%rax,%rax,1)
        if (*format == 'h') {
ffffffff80003918:	41 0f be 7f 01       	movsbl 0x1(%r15),%edi
ffffffff8000391d:	40 80 ff 68          	cmp    $0x68,%dil
ffffffff80003921:	0f 84 2f 03 00 00    	je     ffffffff80003c56 <_vsnprintf+0x7b6>
        flags |= FLAGS_SHORT;
ffffffff80003927:	41 80 ce 80          	or     $0x80,%r14b
ffffffff8000392b:	e9 58 fc ff ff       	jmpq   ffffffff80003588 <_vsnprintf+0xe8>
          idx = _ntoa_long_long(out, buffer, idx, maxlen, (uintptr_t)va_arg(va, void*), false, 16U, precision, width, flags);
ffffffff80003930:	48 8b 7d b0          	mov    -0x50(%rbp),%rdi
        flags |= FLAGS_ZEROPAD | FLAGS_UPPERCASE;
ffffffff80003934:	41 83 ce 21          	or     $0x21,%r14d
          idx = _ntoa_long_long(out, buffer, idx, maxlen, (uintptr_t)va_arg(va, void*), false, 16U, precision, width, flags);
ffffffff80003938:	8b 17                	mov    (%rdi),%edx
ffffffff8000393a:	83 fa 2f             	cmp    $0x2f,%edx
ffffffff8000393d:	0f 87 b5 01 00 00    	ja     ffffffff80003af8 <_vsnprintf+0x658>
ffffffff80003943:	89 d1                	mov    %edx,%ecx
ffffffff80003945:	83 c2 08             	add    $0x8,%edx
ffffffff80003948:	48 03 4f 10          	add    0x10(%rdi),%rcx
ffffffff8000394c:	89 17                	mov    %edx,(%rdi)
ffffffff8000394e:	4c 8b 01             	mov    (%rcx),%r8
ffffffff80003951:	41 56                	push   %r14
ffffffff80003953:	6a 10                	pushq  $0x10
ffffffff80003955:	56                   	push   %rsi
ffffffff80003956:	6a 10                	pushq  $0x10
ffffffff80003958:	45 31 c9             	xor    %r9d,%r9d
ffffffff8000395b:	48 89 d9             	mov    %rbx,%rcx
ffffffff8000395e:	48 89 c2             	mov    %rax,%rdx
ffffffff80003961:	4c 89 e6             	mov    %r12,%rsi
ffffffff80003964:	4c 89 ef             	mov    %r13,%rdi
ffffffff80003967:	e8 b4 f5 ff ff       	callq  ffffffff80002f20 <_ntoa_long>
        break;
ffffffff8000396c:	48 83 c4 20          	add    $0x20,%rsp
ffffffff80003970:	e9 81 fb ff ff       	jmpq   ffffffff800034f6 <_vsnprintf+0x56>
        const char* p = va_arg(va, char*);
ffffffff80003975:	48 8b 7d b0          	mov    -0x50(%rbp),%rdi
ffffffff80003979:	8b 17                	mov    (%rdi),%edx
ffffffff8000397b:	83 fa 2f             	cmp    $0x2f,%edx
ffffffff8000397e:	0f 87 5f 01 00 00    	ja     ffffffff80003ae3 <_vsnprintf+0x643>
ffffffff80003984:	89 d1                	mov    %edx,%ecx
ffffffff80003986:	83 c2 08             	add    $0x8,%edx
ffffffff80003989:	48 03 4f 10          	add    0x10(%rdi),%rcx
ffffffff8000398d:	89 17                	mov    %edx,(%rdi)
ffffffff8000398f:	48 8b 09             	mov    (%rcx),%rcx
        unsigned int l = _strnlen_s(p, precision ? precision : (size_t)-1);
ffffffff80003992:	48 c7 c2 ff ff ff ff 	mov    $0xffffffffffffffff,%rdx
ffffffff80003999:	41 89 f0             	mov    %esi,%r8d
ffffffff8000399c:	85 f6                	test   %esi,%esi
ffffffff8000399e:	4c 0f 44 c2          	cmove  %rdx,%r8
  for (s = str; *s && maxsize--; ++s);
ffffffff800039a2:	0f b6 11             	movzbl (%rcx),%edx
ffffffff800039a5:	84 d2                	test   %dl,%dl
ffffffff800039a7:	0f 84 a0 04 00 00    	je     ffffffff80003e4d <_vsnprintf+0x9ad>
ffffffff800039ad:	49 01 c8             	add    %rcx,%r8
ffffffff800039b0:	48 89 cf             	mov    %rcx,%rdi
ffffffff800039b3:	eb 0c                	jmp    ffffffff800039c1 <_vsnprintf+0x521>
ffffffff800039b5:	0f 1f 00             	nopl   (%rax)
ffffffff800039b8:	49 39 f8             	cmp    %rdi,%r8
ffffffff800039bb:	0f 84 78 02 00 00    	je     ffffffff80003c39 <_vsnprintf+0x799>
ffffffff800039c1:	48 83 c7 01          	add    $0x1,%rdi
ffffffff800039c5:	80 3f 00             	cmpb   $0x0,(%rdi)
ffffffff800039c8:	75 ee                	jne    ffffffff800039b8 <_vsnprintf+0x518>
  return (unsigned int)(s - str);
ffffffff800039ca:	41 89 f8             	mov    %edi,%r8d
ffffffff800039cd:	41 29 c8             	sub    %ecx,%r8d
          l = (l < precision ? l : precision);
ffffffff800039d0:	41 39 f0             	cmp    %esi,%r8d
ffffffff800039d3:	89 f7                	mov    %esi,%edi
ffffffff800039d5:	45 89 f2             	mov    %r14d,%r10d
ffffffff800039d8:	41 0f 46 f8          	cmovbe %r8d,%edi
ffffffff800039dc:	41 81 e2 00 04 00 00 	and    $0x400,%r10d
ffffffff800039e3:	44 89 55 a8          	mov    %r10d,-0x58(%rbp)
ffffffff800039e7:	44 0f 45 c7          	cmovne %edi,%r8d
        if (!(flags & FLAGS_LEFT)) {
ffffffff800039eb:	41 83 e6 02          	and    $0x2,%r14d
ffffffff800039ef:	44 89 75 a4          	mov    %r14d,-0x5c(%rbp)
ffffffff800039f3:	0f 84 96 02 00 00    	je     ffffffff80003c8f <_vsnprintf+0x7ef>
        while ((*p != 0) && (!(flags & FLAGS_PRECISION) || precision--)) {
ffffffff800039f9:	84 d2                	test   %dl,%dl
ffffffff800039fb:	0f 84 8c 00 00 00    	je     ffffffff80003a8d <_vsnprintf+0x5ed>
ffffffff80003a01:	48 29 c1             	sub    %rax,%rcx
ffffffff80003a04:	4c 89 65 c8          	mov    %r12,-0x38(%rbp)
ffffffff80003a08:	49 89 c4             	mov    %rax,%r12
ffffffff80003a0b:	48 89 5d c0          	mov    %rbx,-0x40(%rbp)
ffffffff80003a0f:	8b 5d a8             	mov    -0x58(%rbp),%ebx
ffffffff80003a12:	48 89 4d b8          	mov    %rcx,-0x48(%rbp)
ffffffff80003a16:	4c 89 7d a8          	mov    %r15,-0x58(%rbp)
ffffffff80003a1a:	41 89 f7             	mov    %esi,%r15d
ffffffff80003a1d:	44 89 45 a0          	mov    %r8d,-0x60(%rbp)
ffffffff80003a21:	44 89 5d 98          	mov    %r11d,-0x68(%rbp)
ffffffff80003a25:	eb 0c                	jmp    ffffffff80003a33 <_vsnprintf+0x593>
ffffffff80003a27:	66 0f 1f 84 00 00 00 	nopw   0x0(%rax,%rax,1)
ffffffff80003a2e:	00 00 
          out(*(p++), buffer, idx++, maxlen);
ffffffff80003a30:	4d 89 f4             	mov    %r14,%r12
        while ((*p != 0) && (!(flags & FLAGS_PRECISION) || precision--)) {
ffffffff80003a33:	85 db                	test   %ebx,%ebx
ffffffff80003a35:	74 10                	je     ffffffff80003a47 <_vsnprintf+0x5a7>
ffffffff80003a37:	41 8d 4f ff          	lea    -0x1(%r15),%ecx
ffffffff80003a3b:	45 85 ff             	test   %r15d,%r15d
ffffffff80003a3e:	0f 84 24 02 00 00    	je     ffffffff80003c68 <_vsnprintf+0x7c8>
ffffffff80003a44:	41 89 cf             	mov    %ecx,%r15d
          out(*(p++), buffer, idx++, maxlen);
ffffffff80003a47:	0f be fa             	movsbl %dl,%edi
ffffffff80003a4a:	48 8b 4d c0          	mov    -0x40(%rbp),%rcx
ffffffff80003a4e:	4c 89 e2             	mov    %r12,%rdx
ffffffff80003a51:	48 8b 75 c8          	mov    -0x38(%rbp),%rsi
ffffffff80003a55:	41 ff d5             	callq  *%r13
        while ((*p != 0) && (!(flags & FLAGS_PRECISION) || precision--)) {
ffffffff80003a58:	48 8b 45 b8          	mov    -0x48(%rbp),%rax
          out(*(p++), buffer, idx++, maxlen);
ffffffff80003a5c:	4d 8d 74 24 01       	lea    0x1(%r12),%r14
        while ((*p != 0) && (!(flags & FLAGS_PRECISION) || precision--)) {
ffffffff80003a61:	41 0f b6 54 04 01    	movzbl 0x1(%r12,%rax,1),%edx
ffffffff80003a67:	84 d2                	test   %dl,%dl
ffffffff80003a69:	75 c5                	jne    ffffffff80003a30 <_vsnprintf+0x590>
ffffffff80003a6b:	44 8b 45 a0          	mov    -0x60(%rbp),%r8d
ffffffff80003a6f:	44 8b 5d 98          	mov    -0x68(%rbp),%r11d
ffffffff80003a73:	4c 8b 65 c8          	mov    -0x38(%rbp),%r12
ffffffff80003a77:	48 8b 5d c0          	mov    -0x40(%rbp),%rbx
ffffffff80003a7b:	4c 8b 7d a8          	mov    -0x58(%rbp),%r15
        if (flags & FLAGS_LEFT) {
ffffffff80003a7f:	8b 45 a4             	mov    -0x5c(%rbp),%eax
ffffffff80003a82:	85 c0                	test   %eax,%eax
ffffffff80003a84:	0f 84 69 fa ff ff    	je     ffffffff800034f3 <_vsnprintf+0x53>
ffffffff80003a8a:	4c 89 f0             	mov    %r14,%rax
          while (l++ < width) {
ffffffff80003a8d:	45 39 d8             	cmp    %r11d,%r8d
ffffffff80003a90:	0f 83 75 02 00 00    	jae    ffffffff80003d0b <_vsnprintf+0x86b>
ffffffff80003a96:	41 83 eb 01          	sub    $0x1,%r11d
ffffffff80003a9a:	48 89 5d c8          	mov    %rbx,-0x38(%rbp)
ffffffff80003a9e:	45 29 c3             	sub    %r8d,%r11d
ffffffff80003aa1:	4c 8d 40 01          	lea    0x1(%rax),%r8
ffffffff80003aa5:	4c 89 7d c0          	mov    %r15,-0x40(%rbp)
ffffffff80003aa9:	49 89 c7             	mov    %rax,%r15
ffffffff80003aac:	4f 8d 34 03          	lea    (%r11,%r8,1),%r14
ffffffff80003ab0:	4c 89 c3             	mov    %r8,%rbx
ffffffff80003ab3:	eb 07                	jmp    ffffffff80003abc <_vsnprintf+0x61c>
ffffffff80003ab5:	0f 1f 00             	nopl   (%rax)
ffffffff80003ab8:	48 83 c3 01          	add    $0x1,%rbx
            out(' ', buffer, idx++, maxlen);
ffffffff80003abc:	4c 89 fa             	mov    %r15,%rdx
ffffffff80003abf:	48 8b 4d c8          	mov    -0x38(%rbp),%rcx
ffffffff80003ac3:	49 89 df             	mov    %rbx,%r15
ffffffff80003ac6:	4c 89 e6             	mov    %r12,%rsi
ffffffff80003ac9:	bf 20 00 00 00       	mov    $0x20,%edi
ffffffff80003ace:	41 ff d5             	callq  *%r13
          while (l++ < width) {
ffffffff80003ad1:	4c 39 f3             	cmp    %r14,%rbx
ffffffff80003ad4:	75 e2                	jne    ffffffff80003ab8 <_vsnprintf+0x618>
ffffffff80003ad6:	48 8b 5d c8          	mov    -0x38(%rbp),%rbx
ffffffff80003ada:	4c 8b 7d c0          	mov    -0x40(%rbp),%r15
        break;
ffffffff80003ade:	e9 10 fa ff ff       	jmpq   ffffffff800034f3 <_vsnprintf+0x53>
        const char* p = va_arg(va, char*);
ffffffff80003ae3:	48 8b 7d b0          	mov    -0x50(%rbp),%rdi
ffffffff80003ae7:	48 8b 4f 08          	mov    0x8(%rdi),%rcx
ffffffff80003aeb:	48 8d 51 08          	lea    0x8(%rcx),%rdx
ffffffff80003aef:	48 89 57 08          	mov    %rdx,0x8(%rdi)
ffffffff80003af3:	e9 97 fe ff ff       	jmpq   ffffffff8000398f <_vsnprintf+0x4ef>
          idx = _ntoa_long_long(out, buffer, idx, maxlen, (uintptr_t)va_arg(va, void*), false, 16U, precision, width, flags);
ffffffff80003af8:	48 8b 7d b0          	mov    -0x50(%rbp),%rdi
ffffffff80003afc:	48 8b 4f 08          	mov    0x8(%rdi),%rcx
ffffffff80003b00:	48 8d 51 08          	lea    0x8(%rcx),%rdx
ffffffff80003b04:	48 89 57 08          	mov    %rdx,0x8(%rdi)
ffffffff80003b08:	e9 41 fe ff ff       	jmpq   ffffffff8000394e <_vsnprintf+0x4ae>
        out((char)va_arg(va, int), buffer, idx++, maxlen);
ffffffff80003b0d:	48 8b 75 b0          	mov    -0x50(%rbp),%rsi
ffffffff80003b11:	48 8b 4e 08          	mov    0x8(%rsi),%rcx
ffffffff80003b15:	48 8d 51 08          	lea    0x8(%rcx),%rdx
ffffffff80003b19:	48 89 56 08          	mov    %rdx,0x8(%rsi)
ffffffff80003b1d:	e9 c5 fa ff ff       	jmpq   ffffffff800035e7 <_vsnprintf+0x147>
        const int prec = (int)va_arg(va, int);
ffffffff80003b22:	48 8b 75 b0          	mov    -0x50(%rbp),%rsi
ffffffff80003b26:	8b 16                	mov    (%rsi),%edx
ffffffff80003b28:	83 fa 2f             	cmp    $0x2f,%edx
ffffffff80003b2b:	0f 87 e2 01 00 00    	ja     ffffffff80003d13 <_vsnprintf+0x873>
ffffffff80003b31:	89 d1                	mov    %edx,%ecx
ffffffff80003b33:	83 c2 08             	add    $0x8,%edx
ffffffff80003b36:	48 03 4e 10          	add    0x10(%rsi),%rcx
ffffffff80003b3a:	89 16                	mov    %edx,(%rsi)
        precision = prec > 0 ? (unsigned int)prec : 0U;
ffffffff80003b3c:	8b 31                	mov    (%rcx),%esi
ffffffff80003b3e:	31 d2                	xor    %edx,%edx
    switch (*format) {
ffffffff80003b40:	41 0f be 7f 02       	movsbl 0x2(%r15),%edi
        precision = prec > 0 ? (unsigned int)prec : 0U;
ffffffff80003b45:	85 f6                	test   %esi,%esi
ffffffff80003b47:	0f 48 f2             	cmovs  %edx,%esi
        format++;
ffffffff80003b4a:	49 83 c7 02          	add    $0x2,%r15
ffffffff80003b4e:	49 8d 4f 01          	lea    0x1(%r15),%rcx
ffffffff80003b52:	e9 fe f9 ff ff       	jmpq   ffffffff80003555 <_vsnprintf+0xb5>
          while (l++ < width) {
ffffffff80003b57:	41 83 fb 01          	cmp    $0x1,%r11d
ffffffff80003b5b:	0f 86 c4 03 00 00    	jbe    ffffffff80003f25 <_vsnprintf+0xa85>
ffffffff80003b61:	4c 8d 40 01          	lea    0x1(%rax),%r8
ffffffff80003b65:	41 8d 53 fe          	lea    -0x2(%r11),%edx
ffffffff80003b69:	48 89 5d c8          	mov    %rbx,-0x38(%rbp)
ffffffff80003b6d:	4c 89 7d a8          	mov    %r15,-0x58(%rbp)
ffffffff80003b71:	4d 8d 34 10          	lea    (%r8,%rdx,1),%r14
ffffffff80003b75:	49 89 c7             	mov    %rax,%r15
ffffffff80003b78:	4c 89 c3             	mov    %r8,%rbx
ffffffff80003b7b:	44 89 5d b8          	mov    %r11d,-0x48(%rbp)
ffffffff80003b7f:	eb 0b                	jmp    ffffffff80003b8c <_vsnprintf+0x6ec>
ffffffff80003b81:	0f 1f 80 00 00 00 00 	nopl   0x0(%rax)
ffffffff80003b88:	48 83 c3 01          	add    $0x1,%rbx
            out(' ', buffer, idx++, maxlen);
ffffffff80003b8c:	4c 89 fa             	mov    %r15,%rdx
ffffffff80003b8f:	48 8b 4d c8          	mov    -0x38(%rbp),%rcx
ffffffff80003b93:	49 89 df             	mov    %rbx,%r15
ffffffff80003b96:	4c 89 e6             	mov    %r12,%rsi
ffffffff80003b99:	bf 20 00 00 00       	mov    $0x20,%edi
ffffffff80003b9e:	41 ff d5             	callq  *%r13
          while (l++ < width) {
ffffffff80003ba1:	4c 39 f3             	cmp    %r14,%rbx
ffffffff80003ba4:	75 e2                	jne    ffffffff80003b88 <_vsnprintf+0x6e8>
ffffffff80003ba6:	44 8b 5d b8          	mov    -0x48(%rbp),%r11d
ffffffff80003baa:	4c 8b 7d a8          	mov    -0x58(%rbp),%r15
ffffffff80003bae:	48 89 d8             	mov    %rbx,%rax
ffffffff80003bb1:	48 8b 5d c8          	mov    -0x38(%rbp),%rbx
ffffffff80003bb5:	41 8d 73 01          	lea    0x1(%r11),%esi
ffffffff80003bb9:	89 75 a8             	mov    %esi,-0x58(%rbp)
ffffffff80003bbc:	e9 08 fa ff ff       	jmpq   ffffffff800035c9 <_vsnprintf+0x129>
          if (flags & FLAGS_LONG_LONG) {
ffffffff80003bc1:	45 85 c0             	test   %r8d,%r8d
ffffffff80003bc4:	0f 85 5e 01 00 00    	jne    ffffffff80003d28 <_vsnprintf+0x888>
          else if (flags & FLAGS_LONG) {
ffffffff80003bca:	41 f7 c6 00 01 00 00 	test   $0x100,%r14d
ffffffff80003bd1:	0f 85 42 02 00 00    	jne    ffffffff80003e19 <_vsnprintf+0x979>
            const int value = (flags & FLAGS_CHAR) ? (char)va_arg(va, int) : (flags & FLAGS_SHORT) ? (short int)va_arg(va, int) : va_arg(va, int);
ffffffff80003bd7:	41 f6 c6 40          	test   $0x40,%r14b
ffffffff80003bdb:	0f 85 ac 01 00 00    	jne    ffffffff80003d8d <_vsnprintf+0x8ed>
ffffffff80003be1:	41 f6 c6 80          	test   $0x80,%r14b
ffffffff80003be5:	0f 84 c3 02 00 00    	je     ffffffff80003eae <_vsnprintf+0xa0e>
ffffffff80003beb:	83 f9 2f             	cmp    $0x2f,%ecx
ffffffff80003bee:	0f 87 0a 03 00 00    	ja     ffffffff80003efe <_vsnprintf+0xa5e>
ffffffff80003bf4:	4c 8b 55 b0          	mov    -0x50(%rbp),%r10
ffffffff80003bf8:	89 cf                	mov    %ecx,%edi
ffffffff80003bfa:	83 c1 08             	add    $0x8,%ecx
ffffffff80003bfd:	41 89 0a             	mov    %ecx,(%r10)
ffffffff80003c00:	49 03 7a 10          	add    0x10(%r10),%rdi
ffffffff80003c04:	44 0f bf 0f          	movswl (%rdi),%r9d
            idx = _ntoa_long(out, buffer, idx, maxlen, (unsigned int)(value > 0 ? value : 0 - value), value < 0, base, precision, width, flags);
ffffffff80003c08:	45 89 c8             	mov    %r9d,%r8d
ffffffff80003c0b:	41 56                	push   %r14
ffffffff80003c0d:	41 f7 d8             	neg    %r8d
ffffffff80003c10:	41 53                	push   %r11
ffffffff80003c12:	45 0f 48 c1          	cmovs  %r9d,%r8d
ffffffff80003c16:	56                   	push   %rsi
ffffffff80003c17:	41 c1 e9 1f          	shr    $0x1f,%r9d
ffffffff80003c1b:	52                   	push   %rdx
ffffffff80003c1c:	4d 63 c0             	movslq %r8d,%r8
            idx = _ntoa_long(out, buffer, idx, maxlen, value, false, base, precision, width, flags);
ffffffff80003c1f:	48 89 d9             	mov    %rbx,%rcx
ffffffff80003c22:	48 89 c2             	mov    %rax,%rdx
ffffffff80003c25:	4c 89 e6             	mov    %r12,%rsi
ffffffff80003c28:	4c 89 ef             	mov    %r13,%rdi
ffffffff80003c2b:	e8 f0 f2 ff ff       	callq  ffffffff80002f20 <_ntoa_long>
ffffffff80003c30:	48 83 c4 20          	add    $0x20,%rsp
        break;
ffffffff80003c34:	e9 bd f8 ff ff       	jmpq   ffffffff800034f6 <_vsnprintf+0x56>
  return (unsigned int)(s - str);
ffffffff80003c39:	41 29 c8             	sub    %ecx,%r8d
ffffffff80003c3c:	e9 8f fd ff ff       	jmpq   ffffffff800039d0 <_vsnprintf+0x530>
    switch (*format) {
ffffffff80003c41:	41 0f be 7f 02       	movsbl 0x2(%r15),%edi
          flags |= FLAGS_LONG_LONG;
ffffffff80003c46:	41 81 ce 00 03 00 00 	or     $0x300,%r14d
          format++;
ffffffff80003c4d:	49 8d 57 02          	lea    0x2(%r15),%rdx
ffffffff80003c51:	e9 32 f9 ff ff       	jmpq   ffffffff80003588 <_vsnprintf+0xe8>
    switch (*format) {
ffffffff80003c56:	41 0f be 7f 02       	movsbl 0x2(%r15),%edi
          flags |= FLAGS_CHAR;
ffffffff80003c5b:	41 80 ce c0          	or     $0xc0,%r14b
          format++;
ffffffff80003c5f:	49 8d 57 02          	lea    0x2(%r15),%rdx
ffffffff80003c63:	e9 20 f9 ff ff       	jmpq   ffffffff80003588 <_vsnprintf+0xe8>
ffffffff80003c68:	4c 89 e0             	mov    %r12,%rax
ffffffff80003c6b:	44 8b 45 a0          	mov    -0x60(%rbp),%r8d
ffffffff80003c6f:	44 8b 5d 98          	mov    -0x68(%rbp),%r11d
ffffffff80003c73:	4c 8b 65 c8          	mov    -0x38(%rbp),%r12
ffffffff80003c77:	48 8b 5d c0          	mov    -0x40(%rbp),%rbx
ffffffff80003c7b:	49 89 c6             	mov    %rax,%r14
ffffffff80003c7e:	4c 8b 7d a8          	mov    -0x58(%rbp),%r15
ffffffff80003c82:	e9 f8 fd ff ff       	jmpq   ffffffff80003a7f <_vsnprintf+0x5df>
  while (*format)
ffffffff80003c87:	45 31 f6             	xor    %r14d,%r14d
ffffffff80003c8a:	e9 64 fa ff ff       	jmpq   ffffffff800036f3 <_vsnprintf+0x253>
          while (l++ < width) {
ffffffff80003c8f:	45 39 d8             	cmp    %r11d,%r8d
ffffffff80003c92:	0f 83 48 02 00 00    	jae    ffffffff80003ee0 <_vsnprintf+0xa40>
ffffffff80003c98:	41 8d 53 ff          	lea    -0x1(%r11),%edx
ffffffff80003c9c:	48 89 5d c8          	mov    %rbx,-0x38(%rbp)
ffffffff80003ca0:	44 29 c2             	sub    %r8d,%edx
ffffffff80003ca3:	4c 8d 40 01          	lea    0x1(%rax),%r8
ffffffff80003ca7:	4c 89 7d 98          	mov    %r15,-0x68(%rbp)
ffffffff80003cab:	49 89 c7             	mov    %rax,%r15
ffffffff80003cae:	48 89 4d c0          	mov    %rcx,-0x40(%rbp)
ffffffff80003cb2:	4e 8d 34 02          	lea    (%rdx,%r8,1),%r14
ffffffff80003cb6:	4c 89 c3             	mov    %r8,%rbx
ffffffff80003cb9:	44 89 5d b8          	mov    %r11d,-0x48(%rbp)
ffffffff80003cbd:	89 75 a0             	mov    %esi,-0x60(%rbp)
ffffffff80003cc0:	eb 0a                	jmp    ffffffff80003ccc <_vsnprintf+0x82c>
ffffffff80003cc2:	66 0f 1f 44 00 00    	nopw   0x0(%rax,%rax,1)
ffffffff80003cc8:	48 83 c3 01          	add    $0x1,%rbx
            out(' ', buffer, idx++, maxlen);
ffffffff80003ccc:	4c 89 fa             	mov    %r15,%rdx
ffffffff80003ccf:	48 8b 4d c8          	mov    -0x38(%rbp),%rcx
ffffffff80003cd3:	49 89 df             	mov    %rbx,%r15
ffffffff80003cd6:	4c 89 e6             	mov    %r12,%rsi
ffffffff80003cd9:	bf 20 00 00 00       	mov    $0x20,%edi
ffffffff80003cde:	41 ff d5             	callq  *%r13
          while (l++ < width) {
ffffffff80003ce1:	49 39 de             	cmp    %rbx,%r14
ffffffff80003ce4:	75 e2                	jne    ffffffff80003cc8 <_vsnprintf+0x828>
ffffffff80003ce6:	48 8b 4d c0          	mov    -0x40(%rbp),%rcx
ffffffff80003cea:	44 8b 5d b8          	mov    -0x48(%rbp),%r11d
ffffffff80003cee:	48 89 d8             	mov    %rbx,%rax
ffffffff80003cf1:	8b 75 a0             	mov    -0x60(%rbp),%esi
ffffffff80003cf4:	48 8b 5d c8          	mov    -0x38(%rbp),%rbx
ffffffff80003cf8:	4c 8b 7d 98          	mov    -0x68(%rbp),%r15
        while ((*p != 0) && (!(flags & FLAGS_PRECISION) || precision--)) {
ffffffff80003cfc:	0f b6 11             	movzbl (%rcx),%edx
          while (l++ < width) {
ffffffff80003cff:	45 8d 43 01          	lea    0x1(%r11),%r8d
        while ((*p != 0) && (!(flags & FLAGS_PRECISION) || precision--)) {
ffffffff80003d03:	84 d2                	test   %dl,%dl
ffffffff80003d05:	0f 85 f6 fc ff ff    	jne    ffffffff80003a01 <_vsnprintf+0x561>
          while (l++ < width) {
ffffffff80003d0b:	49 89 c6             	mov    %rax,%r14
ffffffff80003d0e:	e9 e0 f7 ff ff       	jmpq   ffffffff800034f3 <_vsnprintf+0x53>
        const int prec = (int)va_arg(va, int);
ffffffff80003d13:	48 8b 75 b0          	mov    -0x50(%rbp),%rsi
ffffffff80003d17:	48 8b 4e 08          	mov    0x8(%rsi),%rcx
ffffffff80003d1b:	48 8d 51 08          	lea    0x8(%rcx),%rdx
ffffffff80003d1f:	48 89 56 08          	mov    %rdx,0x8(%rsi)
ffffffff80003d23:	e9 14 fe ff ff       	jmpq   ffffffff80003b3c <_vsnprintf+0x69c>
            const long long value = va_arg(va, long long);
ffffffff80003d28:	83 f9 2f             	cmp    $0x2f,%ecx
ffffffff80003d2b:	0f 87 b2 00 00 00    	ja     ffffffff80003de3 <_vsnprintf+0x943>
ffffffff80003d31:	4c 8b 55 b0          	mov    -0x50(%rbp),%r10
ffffffff80003d35:	89 cf                	mov    %ecx,%edi
ffffffff80003d37:	83 c1 08             	add    $0x8,%ecx
ffffffff80003d3a:	41 89 0a             	mov    %ecx,(%r10)
ffffffff80003d3d:	49 03 7a 10          	add    0x10(%r10),%rdi
ffffffff80003d41:	48 8b 0f             	mov    (%rdi),%rcx
            idx = _ntoa_long_long(out, buffer, idx, maxlen, (unsigned long long)(value > 0 ? value : 0 - value), value < 0, base, precision, width, flags);
ffffffff80003d44:	41 56                	push   %r14
ffffffff80003d46:	41 53                	push   %r11
ffffffff80003d48:	49 89 c9             	mov    %rcx,%r9
ffffffff80003d4b:	49 89 c8             	mov    %rcx,%r8
ffffffff80003d4e:	56                   	push   %rsi
ffffffff80003d4f:	49 c1 e9 3f          	shr    $0x3f,%r9
ffffffff80003d53:	49 f7 d8             	neg    %r8
ffffffff80003d56:	52                   	push   %rdx
ffffffff80003d57:	4c 0f 48 c1          	cmovs  %rcx,%r8
ffffffff80003d5b:	e9 fb fb ff ff       	jmpq   ffffffff8000395b <_vsnprintf+0x4bb>
            idx = _ntoa_long_long(out, buffer, idx, maxlen, va_arg(va, unsigned long long), false, base, precision, width, flags);
ffffffff80003d60:	83 f9 2f             	cmp    $0x2f,%ecx
ffffffff80003d63:	77 6c                	ja     ffffffff80003dd1 <_vsnprintf+0x931>
ffffffff80003d65:	4c 8b 55 b0          	mov    -0x50(%rbp),%r10
ffffffff80003d69:	89 cf                	mov    %ecx,%edi
ffffffff80003d6b:	83 c1 08             	add    $0x8,%ecx
ffffffff80003d6e:	41 89 0a             	mov    %ecx,(%r10)
ffffffff80003d71:	49 03 7a 10          	add    0x10(%r10),%rdi
ffffffff80003d75:	4c 8b 07             	mov    (%rdi),%r8
ffffffff80003d78:	41 56                	push   %r14
ffffffff80003d7a:	41 53                	push   %r11
ffffffff80003d7c:	56                   	push   %rsi
ffffffff80003d7d:	52                   	push   %rdx
ffffffff80003d7e:	e9 d5 fb ff ff       	jmpq   ffffffff80003958 <_vsnprintf+0x4b8>
    switch (*format) {
ffffffff80003d83:	ba 02 00 00 00       	mov    $0x2,%edx
ffffffff80003d88:	e9 f2 f9 ff ff       	jmpq   ffffffff8000377f <_vsnprintf+0x2df>
            const int value = (flags & FLAGS_CHAR) ? (char)va_arg(va, int) : (flags & FLAGS_SHORT) ? (short int)va_arg(va, int) : va_arg(va, int);
ffffffff80003d8d:	83 f9 2f             	cmp    $0x2f,%ecx
ffffffff80003d90:	0f 87 e6 00 00 00    	ja     ffffffff80003e7c <_vsnprintf+0x9dc>
ffffffff80003d96:	4c 8b 55 b0          	mov    -0x50(%rbp),%r10
ffffffff80003d9a:	89 cf                	mov    %ecx,%edi
ffffffff80003d9c:	83 c1 08             	add    $0x8,%ecx
ffffffff80003d9f:	41 89 0a             	mov    %ecx,(%r10)
ffffffff80003da2:	49 03 7a 10          	add    0x10(%r10),%rdi
ffffffff80003da6:	44 0f be 0f          	movsbl (%rdi),%r9d
ffffffff80003daa:	e9 59 fe ff ff       	jmpq   ffffffff80003c08 <_vsnprintf+0x768>
            const unsigned int value = (flags & FLAGS_CHAR) ? (unsigned char)va_arg(va, unsigned int) : (flags & FLAGS_SHORT) ? (unsigned short int)va_arg(va, unsigned int) : va_arg(va, unsigned int);
ffffffff80003daf:	83 f9 2f             	cmp    $0x2f,%ecx
ffffffff80003db2:	0f 87 9d 00 00 00    	ja     ffffffff80003e55 <_vsnprintf+0x9b5>
ffffffff80003db8:	4c 8b 55 b0          	mov    -0x50(%rbp),%r10
ffffffff80003dbc:	89 cf                	mov    %ecx,%edi
ffffffff80003dbe:	83 c1 08             	add    $0x8,%ecx
ffffffff80003dc1:	41 89 0a             	mov    %ecx,(%r10)
ffffffff80003dc4:	49 03 7a 10          	add    0x10(%r10),%rdi
ffffffff80003dc8:	44 0f b6 07          	movzbl (%rdi),%r8d
ffffffff80003dcc:	e9 2e fa ff ff       	jmpq   ffffffff800037ff <_vsnprintf+0x35f>
            idx = _ntoa_long_long(out, buffer, idx, maxlen, va_arg(va, unsigned long long), false, base, precision, width, flags);
ffffffff80003dd1:	4c 8b 55 b0          	mov    -0x50(%rbp),%r10
ffffffff80003dd5:	49 8b 7a 08          	mov    0x8(%r10),%rdi
ffffffff80003dd9:	48 8d 4f 08          	lea    0x8(%rdi),%rcx
ffffffff80003ddd:	49 89 4a 08          	mov    %rcx,0x8(%r10)
ffffffff80003de1:	eb 92                	jmp    ffffffff80003d75 <_vsnprintf+0x8d5>
            const long long value = va_arg(va, long long);
ffffffff80003de3:	4c 8b 55 b0          	mov    -0x50(%rbp),%r10
ffffffff80003de7:	49 8b 7a 08          	mov    0x8(%r10),%rdi
ffffffff80003deb:	48 8d 4f 08          	lea    0x8(%rdi),%rcx
ffffffff80003def:	49 89 4a 08          	mov    %rcx,0x8(%r10)
ffffffff80003df3:	e9 49 ff ff ff       	jmpq   ffffffff80003d41 <_vsnprintf+0x8a1>
            idx = _ntoa_long(out, buffer, idx, maxlen, va_arg(va, unsigned long), false, base, precision, width, flags);
ffffffff80003df8:	83 f9 2f             	cmp    $0x2f,%ecx
ffffffff80003dfb:	0f 87 ca 00 00 00    	ja     ffffffff80003ecb <_vsnprintf+0xa2b>
ffffffff80003e01:	4c 8b 55 b0          	mov    -0x50(%rbp),%r10
ffffffff80003e05:	89 cf                	mov    %ecx,%edi
ffffffff80003e07:	83 c1 08             	add    $0x8,%ecx
ffffffff80003e0a:	41 89 0a             	mov    %ecx,(%r10)
ffffffff80003e0d:	49 03 7a 10          	add    0x10(%r10),%rdi
ffffffff80003e11:	4c 8b 07             	mov    (%rdi),%r8
ffffffff80003e14:	e9 e6 f9 ff ff       	jmpq   ffffffff800037ff <_vsnprintf+0x35f>
            const long value = va_arg(va, long);
ffffffff80003e19:	83 f9 2f             	cmp    $0x2f,%ecx
ffffffff80003e1c:	77 4c                	ja     ffffffff80003e6a <_vsnprintf+0x9ca>
ffffffff80003e1e:	4c 8b 55 b0          	mov    -0x50(%rbp),%r10
ffffffff80003e22:	89 cf                	mov    %ecx,%edi
ffffffff80003e24:	83 c1 08             	add    $0x8,%ecx
ffffffff80003e27:	41 89 0a             	mov    %ecx,(%r10)
ffffffff80003e2a:	49 03 7a 10          	add    0x10(%r10),%rdi
ffffffff80003e2e:	48 8b 0f             	mov    (%rdi),%rcx
            idx = _ntoa_long(out, buffer, idx, maxlen, (unsigned long)(value > 0 ? value : 0 - value), value < 0, base, precision, width, flags);
ffffffff80003e31:	41 56                	push   %r14
ffffffff80003e33:	41 53                	push   %r11
ffffffff80003e35:	49 89 c9             	mov    %rcx,%r9
ffffffff80003e38:	49 89 c8             	mov    %rcx,%r8
ffffffff80003e3b:	56                   	push   %rsi
ffffffff80003e3c:	49 c1 e9 3f          	shr    $0x3f,%r9
ffffffff80003e40:	49 f7 d8             	neg    %r8
ffffffff80003e43:	52                   	push   %rdx
ffffffff80003e44:	4c 0f 48 c1          	cmovs  %rcx,%r8
ffffffff80003e48:	e9 d2 fd ff ff       	jmpq   ffffffff80003c1f <_vsnprintf+0x77f>
  for (s = str; *s && maxsize--; ++s);
ffffffff80003e4d:	45 31 c0             	xor    %r8d,%r8d
ffffffff80003e50:	e9 7b fb ff ff       	jmpq   ffffffff800039d0 <_vsnprintf+0x530>
            const unsigned int value = (flags & FLAGS_CHAR) ? (unsigned char)va_arg(va, unsigned int) : (flags & FLAGS_SHORT) ? (unsigned short int)va_arg(va, unsigned int) : va_arg(va, unsigned int);
ffffffff80003e55:	4c 8b 4d b0          	mov    -0x50(%rbp),%r9
ffffffff80003e59:	49 8b 79 08          	mov    0x8(%r9),%rdi
ffffffff80003e5d:	48 8d 4f 08          	lea    0x8(%rdi),%rcx
ffffffff80003e61:	49 89 49 08          	mov    %rcx,0x8(%r9)
ffffffff80003e65:	e9 5e ff ff ff       	jmpq   ffffffff80003dc8 <_vsnprintf+0x928>
            const long value = va_arg(va, long);
ffffffff80003e6a:	4c 8b 55 b0          	mov    -0x50(%rbp),%r10
ffffffff80003e6e:	49 8b 7a 08          	mov    0x8(%r10),%rdi
ffffffff80003e72:	48 8d 4f 08          	lea    0x8(%rdi),%rcx
ffffffff80003e76:	49 89 4a 08          	mov    %rcx,0x8(%r10)
ffffffff80003e7a:	eb b2                	jmp    ffffffff80003e2e <_vsnprintf+0x98e>
            const int value = (flags & FLAGS_CHAR) ? (char)va_arg(va, int) : (flags & FLAGS_SHORT) ? (short int)va_arg(va, int) : va_arg(va, int);
ffffffff80003e7c:	4c 8b 55 b0          	mov    -0x50(%rbp),%r10
ffffffff80003e80:	49 8b 7a 08          	mov    0x8(%r10),%rdi
ffffffff80003e84:	48 8d 4f 08          	lea    0x8(%rdi),%rcx
ffffffff80003e88:	49 89 4a 08          	mov    %rcx,0x8(%r10)
ffffffff80003e8c:	e9 15 ff ff ff       	jmpq   ffffffff80003da6 <_vsnprintf+0x906>
            const unsigned int value = (flags & FLAGS_CHAR) ? (unsigned char)va_arg(va, unsigned int) : (flags & FLAGS_SHORT) ? (unsigned short int)va_arg(va, unsigned int) : va_arg(va, unsigned int);
ffffffff80003e91:	83 f9 2f             	cmp    $0x2f,%ecx
ffffffff80003e94:	77 7d                	ja     ffffffff80003f13 <_vsnprintf+0xa73>
ffffffff80003e96:	4c 8b 55 b0          	mov    -0x50(%rbp),%r10
ffffffff80003e9a:	89 cf                	mov    %ecx,%edi
ffffffff80003e9c:	83 c1 08             	add    $0x8,%ecx
ffffffff80003e9f:	41 89 0a             	mov    %ecx,(%r10)
ffffffff80003ea2:	49 03 7a 10          	add    0x10(%r10),%rdi
ffffffff80003ea6:	44 8b 07             	mov    (%rdi),%r8d
ffffffff80003ea9:	e9 51 f9 ff ff       	jmpq   ffffffff800037ff <_vsnprintf+0x35f>
            const int value = (flags & FLAGS_CHAR) ? (char)va_arg(va, int) : (flags & FLAGS_SHORT) ? (short int)va_arg(va, int) : va_arg(va, int);
ffffffff80003eae:	83 f9 2f             	cmp    $0x2f,%ecx
ffffffff80003eb1:	77 7e                	ja     ffffffff80003f31 <_vsnprintf+0xa91>
ffffffff80003eb3:	4c 8b 55 b0          	mov    -0x50(%rbp),%r10
ffffffff80003eb7:	89 cf                	mov    %ecx,%edi
ffffffff80003eb9:	83 c1 08             	add    $0x8,%ecx
ffffffff80003ebc:	41 89 0a             	mov    %ecx,(%r10)
ffffffff80003ebf:	49 03 7a 10          	add    0x10(%r10),%rdi
ffffffff80003ec3:	44 8b 0f             	mov    (%rdi),%r9d
ffffffff80003ec6:	e9 3d fd ff ff       	jmpq   ffffffff80003c08 <_vsnprintf+0x768>
            idx = _ntoa_long(out, buffer, idx, maxlen, va_arg(va, unsigned long), false, base, precision, width, flags);
ffffffff80003ecb:	4c 8b 55 b0          	mov    -0x50(%rbp),%r10
ffffffff80003ecf:	49 8b 7a 08          	mov    0x8(%r10),%rdi
ffffffff80003ed3:	48 8d 4f 08          	lea    0x8(%rdi),%rcx
ffffffff80003ed7:	49 89 4a 08          	mov    %rcx,0x8(%r10)
ffffffff80003edb:	e9 31 ff ff ff       	jmpq   ffffffff80003e11 <_vsnprintf+0x971>
          while (l++ < width) {
ffffffff80003ee0:	41 83 c0 01          	add    $0x1,%r8d
ffffffff80003ee4:	e9 1a fe ff ff       	jmpq   ffffffff80003d03 <_vsnprintf+0x863>
            const unsigned int value = (flags & FLAGS_CHAR) ? (unsigned char)va_arg(va, unsigned int) : (flags & FLAGS_SHORT) ? (unsigned short int)va_arg(va, unsigned int) : va_arg(va, unsigned int);
ffffffff80003ee9:	4c 8b 4d b0          	mov    -0x50(%rbp),%r9
ffffffff80003eed:	49 8b 79 08          	mov    0x8(%r9),%rdi
ffffffff80003ef1:	48 8d 4f 08          	lea    0x8(%rdi),%rcx
ffffffff80003ef5:	49 89 49 08          	mov    %rcx,0x8(%r9)
ffffffff80003ef9:	e9 fd f8 ff ff       	jmpq   ffffffff800037fb <_vsnprintf+0x35b>
            const int value = (flags & FLAGS_CHAR) ? (char)va_arg(va, int) : (flags & FLAGS_SHORT) ? (short int)va_arg(va, int) : va_arg(va, int);
ffffffff80003efe:	4c 8b 55 b0          	mov    -0x50(%rbp),%r10
ffffffff80003f02:	49 8b 7a 08          	mov    0x8(%r10),%rdi
ffffffff80003f06:	48 8d 4f 08          	lea    0x8(%rdi),%rcx
ffffffff80003f0a:	49 89 4a 08          	mov    %rcx,0x8(%r10)
ffffffff80003f0e:	e9 f1 fc ff ff       	jmpq   ffffffff80003c04 <_vsnprintf+0x764>
            const unsigned int value = (flags & FLAGS_CHAR) ? (unsigned char)va_arg(va, unsigned int) : (flags & FLAGS_SHORT) ? (unsigned short int)va_arg(va, unsigned int) : va_arg(va, unsigned int);
ffffffff80003f13:	4c 8b 4d b0          	mov    -0x50(%rbp),%r9
ffffffff80003f17:	49 8b 79 08          	mov    0x8(%r9),%rdi
ffffffff80003f1b:	48 8d 4f 08          	lea    0x8(%rdi),%rcx
ffffffff80003f1f:	49 89 49 08          	mov    %rcx,0x8(%r9)
ffffffff80003f23:	eb 81                	jmp    ffffffff80003ea6 <_vsnprintf+0xa06>
          while (l++ < width) {
ffffffff80003f25:	c7 45 a8 02 00 00 00 	movl   $0x2,-0x58(%rbp)
ffffffff80003f2c:	e9 98 f6 ff ff       	jmpq   ffffffff800035c9 <_vsnprintf+0x129>
            const int value = (flags & FLAGS_CHAR) ? (char)va_arg(va, int) : (flags & FLAGS_SHORT) ? (short int)va_arg(va, int) : va_arg(va, int);
ffffffff80003f31:	4c 8b 55 b0          	mov    -0x50(%rbp),%r10
ffffffff80003f35:	49 8b 7a 08          	mov    0x8(%r10),%rdi
ffffffff80003f39:	48 8d 4f 08          	lea    0x8(%rdi),%rcx
ffffffff80003f3d:	49 89 4a 08          	mov    %rcx,0x8(%r10)
ffffffff80003f41:	eb 80                	jmp    ffffffff80003ec3 <_vsnprintf+0xa23>
        if (*format == 'x' || *format == 'X') {
ffffffff80003f43:	89 fa                	mov    %edi,%edx
ffffffff80003f45:	83 e2 df             	and    $0xffffffdf,%edx
ffffffff80003f48:	80 fa 58             	cmp    $0x58,%dl
ffffffff80003f4b:	75 13                	jne    ffffffff80003f60 <_vsnprintf+0xac0>
ffffffff80003f4d:	ba 10 00 00 00       	mov    $0x10,%edx
ffffffff80003f52:	e9 28 f8 ff ff       	jmpq   ffffffff8000377f <_vsnprintf+0x2df>
ffffffff80003f57:	66 0f 1f 84 00 00 00 	nopw   0x0(%rax,%rax,1)
ffffffff80003f5e:	00 00 
        else if (*format == 'o') {
ffffffff80003f60:	40 80 ff 6f          	cmp    $0x6f,%dil
ffffffff80003f64:	74 2a                	je     ffffffff80003f90 <_vsnprintf+0xaf0>
          flags &= ~FLAGS_HASH;   // no hash for dec format
ffffffff80003f66:	41 83 e6 ef          	and    $0xffffffef,%r14d
        if ((*format != 'i') && (*format != 'd')) {
ffffffff80003f6a:	ba 0a 00 00 00       	mov    $0xa,%edx
ffffffff80003f6f:	40 80 ff 69          	cmp    $0x69,%dil
ffffffff80003f73:	0f 84 0a f8 ff ff    	je     ffffffff80003783 <_vsnprintf+0x2e3>
ffffffff80003f79:	40 80 ff 64          	cmp    $0x64,%dil
ffffffff80003f7d:	0f 84 00 f8 ff ff    	je     ffffffff80003783 <_vsnprintf+0x2e3>
ffffffff80003f83:	e9 f7 f7 ff ff       	jmpq   ffffffff8000377f <_vsnprintf+0x2df>
ffffffff80003f88:	0f 1f 84 00 00 00 00 	nopl   0x0(%rax,%rax,1)
ffffffff80003f8f:	00 
ffffffff80003f90:	ba 08 00 00 00       	mov    $0x8,%edx
ffffffff80003f95:	e9 e5 f7 ff ff       	jmpq   ffffffff8000377f <_vsnprintf+0x2df>
        format++;
ffffffff80003f9a:	49 89 cf             	mov    %rcx,%r15
ffffffff80003f9d:	e9 f4 f5 ff ff       	jmpq   ffffffff80003596 <_vsnprintf+0xf6>
ffffffff80003fa2:	66 66 2e 0f 1f 84 00 	data16 nopw %cs:0x0(%rax,%rax,1)
ffffffff80003fa9:	00 00 00 00 
ffffffff80003fad:	0f 1f 00             	nopl   (%rax)

ffffffff80003fb0 <printf_>:


///////////////////////////////////////////////////////////////////////////////

int printf_(const char* format, ...)
{
ffffffff80003fb0:	55                   	push   %rbp
ffffffff80003fb1:	48 89 e5             	mov    %rsp,%rbp
ffffffff80003fb4:	48 83 ec 50          	sub    $0x50,%rsp
  va_list va;
  va_start(va, format);
ffffffff80003fb8:	48 8d 45 10          	lea    0x10(%rbp),%rax
{
ffffffff80003fbc:	48 89 75 d8          	mov    %rsi,-0x28(%rbp)
  char buffer[1];
  const int ret = _vsnprintf(_out_char, buffer, (size_t)-1, format, va);
ffffffff80003fc0:	48 8d 75 b7          	lea    -0x49(%rbp),%rsi
  va_start(va, format);
ffffffff80003fc4:	48 89 45 c0          	mov    %rax,-0x40(%rbp)
ffffffff80003fc8:	48 8d 45 d0          	lea    -0x30(%rbp),%rax
{
ffffffff80003fcc:	48 89 55 e0          	mov    %rdx,-0x20(%rbp)
  const int ret = _vsnprintf(_out_char, buffer, (size_t)-1, format, va);
ffffffff80003fd0:	48 c7 c2 ff ff ff ff 	mov    $0xffffffffffffffff,%rdx
{
ffffffff80003fd7:	48 89 4d e8          	mov    %rcx,-0x18(%rbp)
  const int ret = _vsnprintf(_out_char, buffer, (size_t)-1, format, va);
ffffffff80003fdb:	48 89 f9             	mov    %rdi,%rcx
ffffffff80003fde:	48 c7 c7 60 34 00 80 	mov    $0xffffffff80003460,%rdi
{
ffffffff80003fe5:	4c 89 45 f0          	mov    %r8,-0x10(%rbp)
  const int ret = _vsnprintf(_out_char, buffer, (size_t)-1, format, va);
ffffffff80003fe9:	4c 8d 45 b8          	lea    -0x48(%rbp),%r8
{
ffffffff80003fed:	4c 89 4d f8          	mov    %r9,-0x8(%rbp)
  va_start(va, format);
ffffffff80003ff1:	c7 45 b8 08 00 00 00 	movl   $0x8,-0x48(%rbp)
ffffffff80003ff8:	48 89 45 c8          	mov    %rax,-0x38(%rbp)
  const int ret = _vsnprintf(_out_char, buffer, (size_t)-1, format, va);
ffffffff80003ffc:	e8 9f f4 ff ff       	callq  ffffffff800034a0 <_vsnprintf>
  va_end(va);
  return ret;
}
ffffffff80004001:	c9                   	leaveq 
ffffffff80004002:	c3                   	retq   
ffffffff80004003:	66 66 2e 0f 1f 84 00 	data16 nopw %cs:0x0(%rax,%rax,1)
ffffffff8000400a:	00 00 00 00 
ffffffff8000400e:	66 90                	xchg   %ax,%ax

ffffffff80004010 <sprintf_>:


int sprintf_(char* buffer, const char* format, ...)
{
ffffffff80004010:	55                   	push   %rbp
ffffffff80004011:	48 89 e5             	mov    %rsp,%rbp
ffffffff80004014:	48 83 ec 50          	sub    $0x50,%rsp
  va_list va;
  va_start(va, format);
ffffffff80004018:	48 8d 45 10          	lea    0x10(%rbp),%rax
{
ffffffff8000401c:	48 89 55 e0          	mov    %rdx,-0x20(%rbp)
  const int ret = _vsnprintf(_out_buffer, buffer, (size_t)-1, format, va);
ffffffff80004020:	48 c7 c2 ff ff ff ff 	mov    $0xffffffffffffffff,%rdx
  va_start(va, format);
ffffffff80004027:	48 89 45 c0          	mov    %rax,-0x40(%rbp)
ffffffff8000402b:	48 8d 45 d0          	lea    -0x30(%rbp),%rax
{
ffffffff8000402f:	48 89 4d e8          	mov    %rcx,-0x18(%rbp)
  const int ret = _vsnprintf(_out_buffer, buffer, (size_t)-1, format, va);
ffffffff80004033:	48 89 f1             	mov    %rsi,%rcx
ffffffff80004036:	48 89 fe             	mov    %rdi,%rsi
ffffffff80004039:	48 c7 c7 00 2f 00 80 	mov    $0xffffffff80002f00,%rdi
{
ffffffff80004040:	4c 89 45 f0          	mov    %r8,-0x10(%rbp)
  const int ret = _vsnprintf(_out_buffer, buffer, (size_t)-1, format, va);
ffffffff80004044:	4c 8d 45 b8          	lea    -0x48(%rbp),%r8
{
ffffffff80004048:	4c 89 4d f8          	mov    %r9,-0x8(%rbp)
  va_start(va, format);
ffffffff8000404c:	c7 45 b8 10 00 00 00 	movl   $0x10,-0x48(%rbp)
ffffffff80004053:	48 89 45 c8          	mov    %rax,-0x38(%rbp)
  const int ret = _vsnprintf(_out_buffer, buffer, (size_t)-1, format, va);
ffffffff80004057:	e8 44 f4 ff ff       	callq  ffffffff800034a0 <_vsnprintf>
  va_end(va);
  return ret;
}
ffffffff8000405c:	c9                   	leaveq 
ffffffff8000405d:	c3                   	retq   
ffffffff8000405e:	66 90                	xchg   %ax,%ax

ffffffff80004060 <snprintf_>:


int snprintf_(char* buffer, size_t count, const char* format, ...)
{
ffffffff80004060:	55                   	push   %rbp
ffffffff80004061:	48 89 e5             	mov    %rsp,%rbp
ffffffff80004064:	48 83 ec 50          	sub    $0x50,%rsp
  va_list va;
  va_start(va, format);
ffffffff80004068:	48 8d 45 10          	lea    0x10(%rbp),%rax
{
ffffffff8000406c:	48 89 4d e8          	mov    %rcx,-0x18(%rbp)
  const int ret = _vsnprintf(_out_buffer, buffer, count, format, va);
ffffffff80004070:	48 89 d1             	mov    %rdx,%rcx
ffffffff80004073:	48 89 f2             	mov    %rsi,%rdx
  va_start(va, format);
ffffffff80004076:	48 89 45 c0          	mov    %rax,-0x40(%rbp)
ffffffff8000407a:	48 8d 45 d0          	lea    -0x30(%rbp),%rax
  const int ret = _vsnprintf(_out_buffer, buffer, count, format, va);
ffffffff8000407e:	48 89 fe             	mov    %rdi,%rsi
ffffffff80004081:	48 c7 c7 00 2f 00 80 	mov    $0xffffffff80002f00,%rdi
{
ffffffff80004088:	4c 89 45 f0          	mov    %r8,-0x10(%rbp)
  const int ret = _vsnprintf(_out_buffer, buffer, count, format, va);
ffffffff8000408c:	4c 8d 45 b8          	lea    -0x48(%rbp),%r8
{
ffffffff80004090:	4c 89 4d f8          	mov    %r9,-0x8(%rbp)
  va_start(va, format);
ffffffff80004094:	c7 45 b8 18 00 00 00 	movl   $0x18,-0x48(%rbp)
ffffffff8000409b:	48 89 45 c8          	mov    %rax,-0x38(%rbp)
  const int ret = _vsnprintf(_out_buffer, buffer, count, format, va);
ffffffff8000409f:	e8 fc f3 ff ff       	callq  ffffffff800034a0 <_vsnprintf>
  va_end(va);
  return ret;
}
ffffffff800040a4:	c9                   	leaveq 
ffffffff800040a5:	c3                   	retq   
ffffffff800040a6:	66 2e 0f 1f 84 00 00 	nopw   %cs:0x0(%rax,%rax,1)
ffffffff800040ad:	00 00 00 

ffffffff800040b0 <vprintf_>:


int vprintf_(const char* format, va_list va)
{
ffffffff800040b0:	55                   	push   %rbp
ffffffff800040b1:	48 89 f9             	mov    %rdi,%rcx
ffffffff800040b4:	49 89 f0             	mov    %rsi,%r8
  char buffer[1];
  return _vsnprintf(_out_char, buffer, (size_t)-1, format, va);
ffffffff800040b7:	48 c7 c2 ff ff ff ff 	mov    $0xffffffffffffffff,%rdx
ffffffff800040be:	48 c7 c7 60 34 00 80 	mov    $0xffffffff80003460,%rdi
{
ffffffff800040c5:	48 89 e5             	mov    %rsp,%rbp
ffffffff800040c8:	48 83 ec 10          	sub    $0x10,%rsp
  return _vsnprintf(_out_char, buffer, (size_t)-1, format, va);
ffffffff800040cc:	48 8d 75 ff          	lea    -0x1(%rbp),%rsi
ffffffff800040d0:	e8 cb f3 ff ff       	callq  ffffffff800034a0 <_vsnprintf>
}
ffffffff800040d5:	c9                   	leaveq 
ffffffff800040d6:	c3                   	retq   
ffffffff800040d7:	66 0f 1f 84 00 00 00 	nopw   0x0(%rax,%rax,1)
ffffffff800040de:	00 00 

ffffffff800040e0 <vsnprintf_>:


int vsnprintf_(char* buffer, size_t count, const char* format, va_list va)
{
ffffffff800040e0:	49 89 c8             	mov    %rcx,%r8
  return _vsnprintf(_out_buffer, buffer, count, format, va);
ffffffff800040e3:	48 89 d1             	mov    %rdx,%rcx
ffffffff800040e6:	48 89 f2             	mov    %rsi,%rdx
ffffffff800040e9:	48 89 fe             	mov    %rdi,%rsi
ffffffff800040ec:	48 c7 c7 00 2f 00 80 	mov    $0xffffffff80002f00,%rdi
ffffffff800040f3:	e9 a8 f3 ff ff       	jmpq   ffffffff800034a0 <_vsnprintf>
ffffffff800040f8:	0f 1f 84 00 00 00 00 	nopl   0x0(%rax,%rax,1)
ffffffff800040ff:	00 

ffffffff80004100 <fctprintf>:
}


int fctprintf(void (*out)(char character, void* arg), void* arg, const char* format, ...)
{
ffffffff80004100:	55                   	push   %rbp
ffffffff80004101:	48 89 e5             	mov    %rsp,%rbp
ffffffff80004104:	48 83 ec 60          	sub    $0x60,%rsp
  va_list va;
  va_start(va, format);
ffffffff80004108:	48 8d 45 10          	lea    0x10(%rbp),%rax
{
ffffffff8000410c:	48 89 4d e8          	mov    %rcx,-0x18(%rbp)
  const out_fct_wrap_type out_fct_wrap = { out, arg };
  const int ret = _vsnprintf(_out_fct, (char*)(uintptr_t)&out_fct_wrap, (size_t)-1, format, va);
ffffffff80004110:	48 89 d1             	mov    %rdx,%rcx
ffffffff80004113:	48 c7 c2 ff ff ff ff 	mov    $0xffffffffffffffff,%rdx
  va_start(va, format);
ffffffff8000411a:	48 89 45 c0          	mov    %rax,-0x40(%rbp)
ffffffff8000411e:	48 8d 45 d0          	lea    -0x30(%rbp),%rax
{
ffffffff80004122:	4c 89 45 f0          	mov    %r8,-0x10(%rbp)
  const int ret = _vsnprintf(_out_fct, (char*)(uintptr_t)&out_fct_wrap, (size_t)-1, format, va);
ffffffff80004126:	4c 8d 45 b8          	lea    -0x48(%rbp),%r8
{
ffffffff8000412a:	4c 89 4d f8          	mov    %r9,-0x8(%rbp)
  va_start(va, format);
ffffffff8000412e:	c7 45 b8 18 00 00 00 	movl   $0x18,-0x48(%rbp)
ffffffff80004135:	48 89 45 c8          	mov    %rax,-0x38(%rbp)
  const out_fct_wrap_type out_fct_wrap = { out, arg };
ffffffff80004139:	48 89 7d a8          	mov    %rdi,-0x58(%rbp)
  const int ret = _vsnprintf(_out_fct, (char*)(uintptr_t)&out_fct_wrap, (size_t)-1, format, va);
ffffffff8000413d:	48 c7 c7 80 34 00 80 	mov    $0xffffffff80003480,%rdi
  const out_fct_wrap_type out_fct_wrap = { out, arg };
ffffffff80004144:	48 89 75 b0          	mov    %rsi,-0x50(%rbp)
  const int ret = _vsnprintf(_out_fct, (char*)(uintptr_t)&out_fct_wrap, (size_t)-1, format, va);
ffffffff80004148:	48 8d 75 a8          	lea    -0x58(%rbp),%rsi
ffffffff8000414c:	e8 4f f3 ff ff       	callq  ffffffff800034a0 <_vsnprintf>
  va_end(va);
  return ret;
ffffffff80004151:	c9                   	leaveq 
ffffffff80004152:	c3                   	retq   
ffffffff80004153:	66 2e 0f 1f 84 00 00 	nopw   %cs:0x0(%rax,%rax,1)
ffffffff8000415a:	00 00 00 
ffffffff8000415d:	0f 1f 00             	nopl   (%rax)

ffffffff80004160 <_putchar>:


void _putchar(char character)
{
    
    putchar(character);
ffffffff80004160:	40 0f b6 ff          	movzbl %dil,%edi
ffffffff80004164:	e9 f7 c5 ff ff       	jmpq   ffffffff80000760 <putchar>
ffffffff80004169:	0f 1f 80 00 00 00 00 	nopl   0x0(%rax)

ffffffff80004170 <serial_printf>:
    
    //serial_write(0x3F8, character);
}

void serial_printf(uint16_t port, const char* format, ...)
{
ffffffff80004170:	55                   	push   %rbp
ffffffff80004171:	48 89 e5             	mov    %rsp,%rbp
ffffffff80004174:	53                   	push   %rbx
ffffffff80004175:	89 fb                	mov    %edi,%ebx
    char buffer[256];

    va_list argptr;
    va_start(argptr, format);
ffffffff80004177:	48 8d 45 10          	lea    0x10(%rbp),%rax
    vsnprintf(buffer, 256, format, argptr);
ffffffff8000417b:	48 8d bd c0 fe ff ff 	lea    -0x140(%rbp),%rdi
{
ffffffff80004182:	48 81 ec 58 01 00 00 	sub    $0x158,%rsp
    va_start(argptr, format);
ffffffff80004189:	48 89 85 b0 fe ff ff 	mov    %rax,-0x150(%rbp)
ffffffff80004190:	48 8d 45 c0          	lea    -0x40(%rbp),%rax
{
ffffffff80004194:	48 89 55 d0          	mov    %rdx,-0x30(%rbp)
    vsnprintf(buffer, 256, format, argptr);
ffffffff80004198:	48 89 f2             	mov    %rsi,%rdx
ffffffff8000419b:	be 00 01 00 00       	mov    $0x100,%esi
{
ffffffff800041a0:	48 89 4d d8          	mov    %rcx,-0x28(%rbp)
    vsnprintf(buffer, 256, format, argptr);
ffffffff800041a4:	48 8d 8d a8 fe ff ff 	lea    -0x158(%rbp),%rcx
{
ffffffff800041ab:	4c 89 45 e0          	mov    %r8,-0x20(%rbp)
ffffffff800041af:	4c 89 4d e8          	mov    %r9,-0x18(%rbp)
    va_start(argptr, format);
ffffffff800041b3:	c7 85 a8 fe ff ff 10 	movl   $0x10,-0x158(%rbp)
ffffffff800041ba:	00 00 00 
ffffffff800041bd:	48 89 85 b8 fe ff ff 	mov    %rax,-0x148(%rbp)
    vsnprintf(buffer, 256, format, argptr);
ffffffff800041c4:	e8 17 ff ff ff       	callq  ffffffff800040e0 <vsnprintf_>
    va_end(argptr);

    serial_write_str(port, buffer);
ffffffff800041c9:	0f b7 fb             	movzwl %bx,%edi
ffffffff800041cc:	48 8d b5 c0 fe ff ff 	lea    -0x140(%rbp),%rsi
ffffffff800041d3:	e8 e8 cf ff ff       	callq  ffffffff800011c0 <serial_write_str>
}
ffffffff800041d8:	48 8b 5d f8          	mov    -0x8(%rbp),%rbx
ffffffff800041dc:	c9                   	leaveq 
ffffffff800041dd:	c3                   	retq   
ffffffff800041de:	66 90                	xchg   %ax,%ax

ffffffff800041e0 <bootloader_printf>:

void bootloader_printf(const char* format, ...)
{
ffffffff800041e0:	55                   	push   %rbp
ffffffff800041e1:	48 89 e5             	mov    %rsp,%rbp
ffffffff800041e4:	48 81 ec 50 01 00 00 	sub    $0x150,%rsp
    char buffer[256];
    va_list argptr;
    va_start(argptr, format);
ffffffff800041eb:	48 8d 45 10          	lea    0x10(%rbp),%rax
{
ffffffff800041ef:	48 89 75 d8          	mov    %rsi,-0x28(%rbp)
    vsnprintf(buffer, 256, format, argptr);
ffffffff800041f3:	be 00 01 00 00       	mov    $0x100,%esi
    va_start(argptr, format);
ffffffff800041f8:	48 89 85 c0 fe ff ff 	mov    %rax,-0x140(%rbp)
ffffffff800041ff:	48 8d 45 d0          	lea    -0x30(%rbp),%rax
{
ffffffff80004203:	48 89 55 e0          	mov    %rdx,-0x20(%rbp)
    vsnprintf(buffer, 256, format, argptr);
ffffffff80004207:	48 89 fa             	mov    %rdi,%rdx
ffffffff8000420a:	48 8d bd d0 fe ff ff 	lea    -0x130(%rbp),%rdi
{
ffffffff80004211:	48 89 4d e8          	mov    %rcx,-0x18(%rbp)
    vsnprintf(buffer, 256, format, argptr);
ffffffff80004215:	48 8d 8d b8 fe ff ff 	lea    -0x148(%rbp),%rcx
{
ffffffff8000421c:	4c 89 45 f0          	mov    %r8,-0x10(%rbp)
ffffffff80004220:	4c 89 4d f8          	mov    %r9,-0x8(%rbp)
    va_start(argptr, format);
ffffffff80004224:	c7 85 b8 fe ff ff 08 	movl   $0x8,-0x148(%rbp)
ffffffff8000422b:	00 00 00 
ffffffff8000422e:	48 89 85 c8 fe ff ff 	mov    %rax,-0x138(%rbp)
    vsnprintf(buffer, 256, format, argptr);
ffffffff80004235:	e8 a6 fe ff ff       	callq  ffffffff800040e0 <vsnprintf_>
    else if(boot_info.type == LIMINE)
    {
  
        //limine_term_write(boot_info.limine_terminal, buffer, strlen(buffer));
    }
ffffffff8000423a:	c9                   	leaveq 
ffffffff8000423b:	c3                   	retq   
ffffffff8000423c:	0f 1f 40 00          	nopl   0x0(%rax)

ffffffff80004240 <vfs_init>:
void vfs_init()
{
    //create file descriptors for STDIN, STDOUT, and STDERR
    

};
ffffffff80004240:	c3                   	retq   
